
riscelf0:     file format elf32-littleriscv


Disassembly of section .text:

07000000 <_start>:
 7000000:	f9081197          	auipc	gp,0xf9081
 7000004:	80018193          	add	gp,gp,-2048 # 80800 <__global_pointer$>

07000008 <.Lpcrel_hi1>:
 7000008:	f9800117          	auipc	sp,0xf9800
 700000c:	ff410113          	add	sp,sp,-12 # 7ffffc <__stack_init$>
 7000010:	004000ef          	jal	7000014 <__start>

07000014 <__start>:
 7000014:	ff010113          	add	sp,sp,-16
 7000018:	00112623          	sw	ra,12(sp)
 700001c:	00812423          	sw	s0,8(sp)
 7000020:	00912223          	sw	s1,4(sp)
 7000024:	00080537          	lui	a0,0x80
 7000028:	02852503          	lw	a0,40(a0) # 80028 <__rust_alloc_error_handler_should_panic>
 700002c:	000805b7          	lui	a1,0x80
 7000030:	0b05a603          	lw	a2,176(a1) # 800b0 <__bss_end>
 7000034:	00c57a63          	bgeu	a0,a2,7000048 <__start+0x34>
 7000038:	00052023          	sw	zero,0(a0)
 700003c:	0b05a603          	lw	a2,176(a1)
 7000040:	00450513          	add	a0,a0,4
 7000044:	fec56ae3          	bltu	a0,a2,7000038 <__start+0x24>
 7000048:	00080437          	lui	s0,0x80
 700004c:	03c40493          	add	s1,s0,60 # 8003c <_ZN10risc0_zkvm5guest3env6HASHER17h2b2409cc96672782E>
 7000050:	00c48513          	add	a0,s1,12
 7000054:	04100613          	li	a2,65
 7000058:	00000593          	li	a1,0
 700005c:	00001097          	auipc	ra,0x1
 7000060:	dd8080e7          	jalr	-552(ra) # 7000e34 <memset>
 7000064:	00100513          	li	a0,1
 7000068:	02a42e23          	sw	a0,60(s0)
 700006c:	0004a223          	sw	zero,4(s1)
 7000070:	0004a423          	sw	zero,8(s1)
 7000074:	00000097          	auipc	ra,0x0
 7000078:	020080e7          	jalr	32(ra) # 7000094 <__main>
 700007c:	00c12083          	lw	ra,12(sp)
 7000080:	00812403          	lw	s0,8(sp)
 7000084:	00412483          	lw	s1,4(sp)
 7000088:	01010113          	add	sp,sp,16
 700008c:	00001317          	auipc	t1,0x1
 7000090:	2ac30067          	jr	684(t1) # 7001338 <_ZN10risc0_zkvm5guest3env8finalize17h4683497f8b82da0cE>

07000094 <__main>:
 7000094:	fd010113          	add	sp,sp,-48
 7000098:	02112623          	sw	ra,44(sp)
 700009c:	02812423          	sw	s0,40(sp)
 70000a0:	02912223          	sw	s1,36(sp)
 70000a4:	03212023          	sw	s2,32(sp)
 70000a8:	01312e23          	sw	s3,28(sp)
 70000ac:	00001097          	auipc	ra,0x1
 70000b0:	6cc080e7          	jalr	1740(ra) # 7001778 <_ZN10risc0_zkvm5guest3env5stdin17hb0b3d6bdad52895bE>
 70000b4:	00a12223          	sw	a0,4(sp)
 70000b8:	00410513          	add	a0,sp,4
 70000bc:	00a12c23          	sw	a0,24(sp)
 70000c0:	00810513          	add	a0,sp,8
 70000c4:	01810593          	add	a1,sp,24
 70000c8:	01810993          	add	s3,sp,24
 70000cc:	00000097          	auipc	ra,0x0
 70000d0:	0f8080e7          	jalr	248(ra) # 70001c4 <_ZN110_$LT$$RF$mut$u20$risc0_zkvm..serde..deserializer..Deserializer$LT$R$GT$$u20$as$u20$serde..de..Deserializer$GT$18deserialize_string17hcd3f07eec63ea05dE>
 70000d4:	00812403          	lw	s0,8(sp)
 70000d8:	08040463          	beqz	s0,7000160 <__main+0xcc>
 70000dc:	00c12483          	lw	s1,12(sp)
 70000e0:	01012583          	lw	a1,16(sp)
 70000e4:	00040513          	mv	a0,s0
 70000e8:	00001097          	auipc	ra,0x1
 70000ec:	b60080e7          	jalr	-1184(ra) # 7000c48 <_ZN83_$LT$risc0_zkvm..guest..sha..Impl$u20$as$u20$risc0_zkp..core..hash..sha..Sha256$GT$10hash_bytes17h36140a96bf7ce2e5E>
 70000f0:	00050913          	mv	s2,a0
 70000f4:	00001097          	auipc	ra,0x1
 70000f8:	67c080e7          	jalr	1660(ra) # 7001770 <_ZN10risc0_zkvm5guest3env7journal17he59338ac9e48008fE>
 70000fc:	00a12c23          	sw	a0,24(sp)
 7000100:	01312423          	sw	s3,8(sp)
 7000104:	07007537          	lui	a0,0x7007
 7000108:	e2850593          	add	a1,a0,-472 # 7006e28 <anon.ca0acec1ed96f6fc2b88fb8e82be5400.0.llvm.5899260727011860516>
 700010c:	00810513          	add	a0,sp,8
 7000110:	00600613          	li	a2,6
 7000114:	00090693          	mv	a3,s2
 7000118:	00000097          	auipc	ra,0x0
 700011c:	3b0080e7          	jalr	944(ra) # 70004c8 <_ZN105_$LT$$RF$mut$u20$risc0_zkvm..serde..serializer..Serializer$LT$W$GT$$u20$as$u20$serde..ser..Serializer$GT$24serialize_newtype_struct17hd21c72b76a9667caE>
 7000120:	0ff57513          	zext.b	a0,a0
 7000124:	00700593          	li	a1,7
 7000128:	06b51663          	bne	a0,a1,7000194 <__main+0x100>
 700012c:	00048c63          	beqz	s1,7000144 <__main+0xb0>
 7000130:	00100613          	li	a2,1
 7000134:	00040513          	mv	a0,s0
 7000138:	00048593          	mv	a1,s1
 700013c:	00000097          	auipc	ra,0x0
 7000140:	4f0080e7          	jalr	1264(ra) # 700062c <__rust_dealloc>
 7000144:	02c12083          	lw	ra,44(sp)
 7000148:	02812403          	lw	s0,40(sp)
 700014c:	02412483          	lw	s1,36(sp)
 7000150:	02012903          	lw	s2,32(sp)
 7000154:	01c12983          	lw	s3,28(sp)
 7000158:	03010113          	add	sp,sp,48
 700015c:	00008067          	ret
 7000160:	00c10503          	lb	a0,12(sp)
 7000164:	00a10ba3          	sb	a0,23(sp)
 7000168:	07007537          	lui	a0,0x7007
 700016c:	e3050513          	add	a0,a0,-464 # 7006e30 <anon.8021ec8516762b607f32a64c873d281c.4.llvm.3318710579709553222>
 7000170:	070075b7          	lui	a1,0x7007
 7000174:	e5c58693          	add	a3,a1,-420 # 7006e5c <anon.8021ec8516762b607f32a64c873d281c.5.llvm.3318710579709553222>
 7000178:	070075b7          	lui	a1,0x7007
 700017c:	ea458713          	add	a4,a1,-348 # 7006ea4 <anon.8021ec8516762b607f32a64c873d281c.7.llvm.3318710579709553222>
 7000180:	02b00593          	li	a1,43
 7000184:	01710613          	add	a2,sp,23
 7000188:	00007097          	auipc	ra,0x7
 700018c:	a38080e7          	jalr	-1480(ra) # 7006bc0 <_ZN4core6result13unwrap_failed17hf6bc9b148a5ba21eE>
 7000190:	c0001073          	unimp
 7000194:	00a10223          	sb	a0,4(sp)
 7000198:	07007537          	lui	a0,0x7007
 700019c:	e3050513          	add	a0,a0,-464 # 7006e30 <anon.8021ec8516762b607f32a64c873d281c.4.llvm.3318710579709553222>
 70001a0:	070075b7          	lui	a1,0x7007
 70001a4:	e5c58693          	add	a3,a1,-420 # 7006e5c <anon.8021ec8516762b607f32a64c873d281c.5.llvm.3318710579709553222>
 70001a8:	070075b7          	lui	a1,0x7007
 70001ac:	eb458713          	add	a4,a1,-332 # 7006eb4 <anon.8021ec8516762b607f32a64c873d281c.8.llvm.3318710579709553222>
 70001b0:	02b00593          	li	a1,43
 70001b4:	00410613          	add	a2,sp,4
 70001b8:	00007097          	auipc	ra,0x7
 70001bc:	a08080e7          	jalr	-1528(ra) # 7006bc0 <_ZN4core6result13unwrap_failed17hf6bc9b148a5ba21eE>
 70001c0:	c0001073          	unimp

070001c4 <_ZN110_$LT$$RF$mut$u20$risc0_zkvm..serde..deserializer..Deserializer$LT$R$GT$$u20$as$u20$serde..de..Deserializer$GT$18deserialize_string17hcd3f07eec63ea05dE>:
 70001c4:	fd010113          	add	sp,sp,-48
 70001c8:	02112623          	sw	ra,44(sp)
 70001cc:	02812423          	sw	s0,40(sp)
 70001d0:	02912223          	sw	s1,36(sp)
 70001d4:	03212023          	sw	s2,32(sp)
 70001d8:	01312e23          	sw	s3,28(sp)
 70001dc:	01412c23          	sw	s4,24(sp)
 70001e0:	0005a983          	lw	s3,0(a1)
 70001e4:	00050413          	mv	s0,a0
 70001e8:	00012423          	sw	zero,8(sp)
 70001ec:	00810593          	add	a1,sp,8
 70001f0:	00100613          	li	a2,1
 70001f4:	00100913          	li	s2,1
 70001f8:	00098513          	mv	a0,s3
 70001fc:	00001097          	auipc	ra,0x1
 7000200:	584080e7          	jalr	1412(ra) # 7001780 <_ZN94_$LT$risc0_zkvm..guest..env..FdReader$u20$as$u20$risc0_zkvm..serde..deserializer..WordRead$GT$10read_words17hc6f19d077743efe4E>
 7000204:	0ff57513          	zext.b	a0,a0
 7000208:	00700593          	li	a1,7
 700020c:	10b51a63          	bne	a0,a1,7000320 <_ZN110_$LT$$RF$mut$u20$risc0_zkvm..serde..deserializer..Deserializer$LT$R$GT$$u20$as$u20$serde..de..Deserializer$GT$18deserialize_string17hcd3f07eec63ea05dE+0x15c>
 7000210:	00812483          	lw	s1,8(sp)
 7000214:	04048c63          	beqz	s1,700026c <_ZN110_$LT$$RF$mut$u20$risc0_zkvm..serde..deserializer..Deserializer$LT$R$GT$$u20$as$u20$serde..de..Deserializer$GT$18deserialize_string17hcd3f07eec63ea05dE+0xa8>
 7000218:	1204c863          	bltz	s1,7000348 <_ZN110_$LT$$RF$mut$u20$risc0_zkvm..serde..deserializer..Deserializer$LT$R$GT$$u20$as$u20$serde..de..Deserializer$GT$18deserialize_string17hcd3f07eec63ea05dE+0x184>
 700021c:	0004a513          	slti	a0,s1,0
 7000220:	00154a13          	xor	s4,a0,1
 7000224:	00048513          	mv	a0,s1
 7000228:	000a0593          	mv	a1,s4
 700022c:	00000097          	auipc	ra,0x0
 7000230:	3f8080e7          	jalr	1016(ra) # 7000624 <__rust_alloc>
 7000234:	12050063          	beqz	a0,7000354 <_ZN110_$LT$$RF$mut$u20$risc0_zkvm..serde..deserializer..Deserializer$LT$R$GT$$u20$as$u20$serde..de..Deserializer$GT$18deserialize_string17hcd3f07eec63ea05dE+0x190>
 7000238:	00050913          	mv	s2,a0
 700023c:	00100593          	li	a1,1
 7000240:	02b48063          	beq	s1,a1,7000260 <_ZN110_$LT$$RF$mut$u20$risc0_zkvm..serde..deserializer..Deserializer$LT$R$GT$$u20$as$u20$serde..de..Deserializer$GT$18deserialize_string17hcd3f07eec63ea05dE+0x9c>
 7000244:	fff48a13          	add	s4,s1,-1
 7000248:	00090513          	mv	a0,s2
 700024c:	00000593          	li	a1,0
 7000250:	000a0613          	mv	a2,s4
 7000254:	00001097          	auipc	ra,0x1
 7000258:	be0080e7          	jalr	-1056(ra) # 7000e34 <memset>
 700025c:	01490533          	add	a0,s2,s4
 7000260:	00050023          	sb	zero,0(a0)
 7000264:	00048a13          	mv	s4,s1
 7000268:	0080006f          	j	7000270 <_ZN110_$LT$$RF$mut$u20$risc0_zkvm..serde..deserializer..Deserializer$LT$R$GT$$u20$as$u20$serde..de..Deserializer$GT$18deserialize_string17hcd3f07eec63ea05dE+0xac>
 700026c:	00000a13          	li	s4,0
 7000270:	00098513          	mv	a0,s3
 7000274:	00090593          	mv	a1,s2
 7000278:	000a0613          	mv	a2,s4
 700027c:	00001097          	auipc	ra,0x1
 7000280:	544080e7          	jalr	1348(ra) # 70017c0 <_ZN94_$LT$risc0_zkvm..guest..env..FdReader$u20$as$u20$risc0_zkvm..serde..deserializer..WordRead$GT$17read_padded_bytes17h9f7bfde97f8562a1E>
 7000284:	0ff57513          	zext.b	a0,a0
 7000288:	00700593          	li	a1,7
 700028c:	04b51a63          	bne	a0,a1,70002e0 <_ZN110_$LT$$RF$mut$u20$risc0_zkvm..serde..deserializer..Deserializer$LT$R$GT$$u20$as$u20$serde..de..Deserializer$GT$18deserialize_string17hcd3f07eec63ea05dE+0x11c>
 7000290:	00810513          	add	a0,sp,8
 7000294:	00090593          	mv	a1,s2
 7000298:	000a0613          	mv	a2,s4
 700029c:	00005097          	auipc	ra,0x5
 70002a0:	79c080e7          	jalr	1948(ra) # 7005a38 <_ZN4core3str8converts9from_utf817h54fc8eaf249bd3acE>
 70002a4:	00812503          	lw	a0,8(sp)
 70002a8:	00050863          	beqz	a0,70002b8 <_ZN110_$LT$$RF$mut$u20$risc0_zkvm..serde..deserializer..Deserializer$LT$R$GT$$u20$as$u20$serde..de..Deserializer$GT$18deserialize_string17hcd3f07eec63ea05dE+0xf4>
 70002ac:	01014503          	lbu	a0,16(sp)
 70002b0:	00200593          	li	a1,2
 70002b4:	04b51863          	bne	a0,a1,7000304 <_ZN110_$LT$$RF$mut$u20$risc0_zkvm..serde..deserializer..Deserializer$LT$R$GT$$u20$as$u20$serde..de..Deserializer$GT$18deserialize_string17hcd3f07eec63ea05dE+0x140>
 70002b8:	0084d513          	srl	a0,s1,0x8
 70002bc:	01242023          	sw	s2,0(s0)
 70002c0:	00940223          	sb	s1,4(s0)
 70002c4:	00a402a3          	sb	a0,5(s0)
 70002c8:	00855593          	srl	a1,a0,0x8
 70002cc:	00b40323          	sb	a1,6(s0)
 70002d0:	01055513          	srl	a0,a0,0x10
 70002d4:	00a403a3          	sb	a0,7(s0)
 70002d8:	01442423          	sw	s4,8(s0)
 70002dc:	04c0006f          	j	7000328 <_ZN110_$LT$$RF$mut$u20$risc0_zkvm..serde..deserializer..Deserializer$LT$R$GT$$u20$as$u20$serde..de..Deserializer$GT$18deserialize_string17hcd3f07eec63ea05dE+0x164>
 70002e0:	00a40223          	sb	a0,4(s0)
 70002e4:	00042023          	sw	zero,0(s0)
 70002e8:	04048063          	beqz	s1,7000328 <_ZN110_$LT$$RF$mut$u20$risc0_zkvm..serde..deserializer..Deserializer$LT$R$GT$$u20$as$u20$serde..de..Deserializer$GT$18deserialize_string17hcd3f07eec63ea05dE+0x164>
 70002ec:	00100613          	li	a2,1
 70002f0:	00090513          	mv	a0,s2
 70002f4:	00048593          	mv	a1,s1
 70002f8:	00000097          	auipc	ra,0x0
 70002fc:	334080e7          	jalr	820(ra) # 700062c <__rust_dealloc>
 7000300:	0280006f          	j	7000328 <_ZN110_$LT$$RF$mut$u20$risc0_zkvm..serde..deserializer..Deserializer$LT$R$GT$$u20$as$u20$serde..de..Deserializer$GT$18deserialize_string17hcd3f07eec63ea05dE+0x164>
 7000304:	00048c63          	beqz	s1,700031c <_ZN110_$LT$$RF$mut$u20$risc0_zkvm..serde..deserializer..Deserializer$LT$R$GT$$u20$as$u20$serde..de..Deserializer$GT$18deserialize_string17hcd3f07eec63ea05dE+0x158>
 7000308:	00100613          	li	a2,1
 700030c:	00090513          	mv	a0,s2
 7000310:	00048593          	mv	a1,s1
 7000314:	00000097          	auipc	ra,0x0
 7000318:	318080e7          	jalr	792(ra) # 700062c <__rust_dealloc>
 700031c:	00100513          	li	a0,1
 7000320:	00a40223          	sb	a0,4(s0)
 7000324:	00042023          	sw	zero,0(s0)
 7000328:	02c12083          	lw	ra,44(sp)
 700032c:	02812403          	lw	s0,40(sp)
 7000330:	02412483          	lw	s1,36(sp)
 7000334:	02012903          	lw	s2,32(sp)
 7000338:	01c12983          	lw	s3,28(sp)
 700033c:	01812a03          	lw	s4,24(sp)
 7000340:	03010113          	add	sp,sp,48
 7000344:	00008067          	ret
 7000348:	00005097          	auipc	ra,0x5
 700034c:	fd0080e7          	jalr	-48(ra) # 7005318 <_ZN5alloc7raw_vec17capacity_overflow17h59e3baefeac9f928E>
 7000350:	c0001073          	unimp
 7000354:	00048513          	mv	a0,s1
 7000358:	000a0593          	mv	a1,s4
 700035c:	00005097          	auipc	ra,0x5
 7000360:	000080e7          	jalr	ra # 700535c <_ZN5alloc5alloc18handle_alloc_error17hf138f09b4614ca73E>
 7000364:	c0001073          	unimp

07000368 <_ZN4core3ptr50drop_in_place$LT$risc0_zkvm..serde..err..Error$GT$17h7ffcf7d945e70786E.llvm.3318710579709553222>:
 7000368:	00008067          	ret

0700036c <_ZN82_$LT$digest..core_api..wrapper..CoreWrapper$LT$T$GT$$u20$as$u20$digest..Update$GT$6update28_$u7b$$u7b$closure$u7d$$u7d$17h573bffc5157467a5E.llvm.3318710579709553222>:
 700036c:	fe010113          	add	sp,sp,-32
 7000370:	00112e23          	sw	ra,28(sp)
 7000374:	00812c23          	sw	s0,24(sp)
 7000378:	00912a23          	sw	s1,20(sp)
 700037c:	01212823          	sw	s2,16(sp)
 7000380:	01312623          	sw	s3,12(sp)
 7000384:	01412423          	sw	s4,8(sp)
 7000388:	01512223          	sw	s5,4(sp)
 700038c:	00052a83          	lw	s5,0(a0)
 7000390:	004aa503          	lw	a0,4(s5)
 7000394:	000aa403          	lw	s0,0(s5)
 7000398:	00058493          	mv	s1,a1
 700039c:	00c50533          	add	a0,a0,a2
 70003a0:	00aaa223          	sw	a0,4(s5)
 70003a4:	00041663          	bnez	s0,70003b0 <_ZN82_$LT$digest..core_api..wrapper..CoreWrapper$LT$T$GT$$u20$as$u20$digest..Update$GT$6update28_$u7b$$u7b$closure$u7d$$u7d$17h573bffc5157467a5E.llvm.3318710579709553222+0x44>
 70003a8:	07007537          	lui	a0,0x7007
 70003ac:	21050413          	add	s0,a0,528 # 7007210 <_ZN9risc0_zkp4core4hash3sha11SHA256_INIT17h62e1cd879e97d403E>
 70003b0:	0034f513          	and	a0,s1,3
 70003b4:	02050663          	beqz	a0,70003e0 <_ZN82_$LT$digest..core_api..wrapper..CoreWrapper$LT$T$GT$$u20$as$u20$digest..Update$GT$6update28_$u7b$$u7b$closure$u7d$$u7d$17h573bffc5157467a5E.llvm.3318710579709553222+0x74>
 70003b8:	fff00513          	li	a0,-1
 70003bc:	02a60263          	beq	a2,a0,70003e0 <_ZN82_$LT$digest..core_api..wrapper..CoreWrapper$LT$T$GT$$u20$as$u20$digest..Update$GT$6update28_$u7b$$u7b$closure$u7d$$u7d$17h573bffc5157467a5E.llvm.3318710579709553222+0x74>
 70003c0:	00000693          	li	a3,0
 70003c4:	07007537          	lui	a0,0x7007
 70003c8:	e3050593          	add	a1,a0,-464 # 7006e30 <anon.8021ec8516762b607f32a64c873d281c.4.llvm.3318710579709553222>
 70003cc:	00060513          	mv	a0,a2
 70003d0:	02051063          	bnez	a0,70003f0 <_ZN82_$LT$digest..core_api..wrapper..CoreWrapper$LT$T$GT$$u20$as$u20$digest..Update$GT$6update28_$u7b$$u7b$closure$u7d$$u7d$17h573bffc5157467a5E.llvm.3318710579709553222+0x84>
 70003d4:	00040513          	mv	a0,s0
 70003d8:	00068613          	mv	a2,a3
 70003dc:	0980006f          	j	7000474 <_ZN82_$LT$digest..core_api..wrapper..CoreWrapper$LT$T$GT$$u20$as$u20$digest..Update$GT$6update28_$u7b$$u7b$closure$u7d$$u7d$17h573bffc5157467a5E.llvm.3318710579709553222+0x108>
 70003e0:	00651593          	sll	a1,a0,0x6
 70003e4:	00b485b3          	add	a1,s1,a1
 70003e8:	40a606b3          	sub	a3,a2,a0
 70003ec:	fe0504e3          	beqz	a0,70003d4 <_ZN82_$LT$digest..core_api..wrapper..CoreWrapper$LT$T$GT$$u20$as$u20$digest..Update$GT$6update28_$u7b$$u7b$closure$u7d$$u7d$17h573bffc5157467a5E.llvm.3318710579709553222+0x68>
 70003f0:	06060e63          	beqz	a2,700046c <_ZN82_$LT$digest..core_api..wrapper..CoreWrapper$LT$T$GT$$u20$as$u20$digest..Update$GT$6update28_$u7b$$u7b$closure$u7d$$u7d$17h573bffc5157467a5E.llvm.3318710579709553222+0x100>
 70003f4:	01965513          	srl	a0,a2,0x19
 70003f8:	0a051863          	bnez	a0,70004a8 <_ZN82_$LT$digest..core_api..wrapper..CoreWrapper$LT$T$GT$$u20$as$u20$digest..Update$GT$6update28_$u7b$$u7b$closure$u7d$$u7d$17h573bffc5157467a5E.llvm.3318710579709553222+0x13c>
 70003fc:	00661913          	sll	s2,a2,0x6
 7000400:	00153513          	seqz	a0,a0
 7000404:	00251a13          	sll	s4,a0,0x2
 7000408:	00090513          	mv	a0,s2
 700040c:	000a0593          	mv	a1,s4
 7000410:	00000097          	auipc	ra,0x0
 7000414:	214080e7          	jalr	532(ra) # 7000624 <__rust_alloc>
 7000418:	08050e63          	beqz	a0,70004b4 <_ZN82_$LT$digest..core_api..wrapper..CoreWrapper$LT$T$GT$$u20$as$u20$digest..Update$GT$6update28_$u7b$$u7b$closure$u7d$$u7d$17h573bffc5157467a5E.llvm.3318710579709553222+0x148>
 700041c:	00050993          	mv	s3,a0
 7000420:	fc090513          	add	a0,s2,-64
 7000424:	00655a13          	srl	s4,a0,0x6
 7000428:	00098513          	mv	a0,s3
 700042c:	00048593          	mv	a1,s1
 7000430:	00090613          	mv	a2,s2
 7000434:	00001097          	auipc	ra,0x1
 7000438:	af8080e7          	jalr	-1288(ra) # 7000f2c <memcpy>
 700043c:	001a0613          	add	a2,s4,1
 7000440:	00040513          	mv	a0,s0
 7000444:	00098593          	mv	a1,s3
 7000448:	00001097          	auipc	ra,0x1
 700044c:	8f4080e7          	jalr	-1804(ra) # 7000d3c <_ZN83_$LT$risc0_zkvm..guest..sha..Impl$u20$as$u20$risc0_zkp..core..hash..sha..Sha256$GT$14compress_slice17hbbce71a927f87c81E>
 7000450:	00050413          	mv	s0,a0
 7000454:	00400613          	li	a2,4
 7000458:	00098513          	mv	a0,s3
 700045c:	00090593          	mv	a1,s2
 7000460:	00000097          	auipc	ra,0x0
 7000464:	1cc080e7          	jalr	460(ra) # 700062c <__rust_dealloc>
 7000468:	0180006f          	j	7000480 <_ZN82_$LT$digest..core_api..wrapper..CoreWrapper$LT$T$GT$$u20$as$u20$digest..Update$GT$6update28_$u7b$$u7b$closure$u7d$$u7d$17h573bffc5157467a5E.llvm.3318710579709553222+0x114>
 700046c:	00400593          	li	a1,4
 7000470:	00040513          	mv	a0,s0
 7000474:	00001097          	auipc	ra,0x1
 7000478:	8c8080e7          	jalr	-1848(ra) # 7000d3c <_ZN83_$LT$risc0_zkvm..guest..sha..Impl$u20$as$u20$risc0_zkp..core..hash..sha..Sha256$GT$14compress_slice17hbbce71a927f87c81E>
 700047c:	00050413          	mv	s0,a0
 7000480:	008aa023          	sw	s0,0(s5)
 7000484:	01c12083          	lw	ra,28(sp)
 7000488:	01812403          	lw	s0,24(sp)
 700048c:	01412483          	lw	s1,20(sp)
 7000490:	01012903          	lw	s2,16(sp)
 7000494:	00c12983          	lw	s3,12(sp)
 7000498:	00812a03          	lw	s4,8(sp)
 700049c:	00412a83          	lw	s5,4(sp)
 70004a0:	02010113          	add	sp,sp,32
 70004a4:	00008067          	ret
 70004a8:	00005097          	auipc	ra,0x5
 70004ac:	e70080e7          	jalr	-400(ra) # 7005318 <_ZN5alloc7raw_vec17capacity_overflow17h59e3baefeac9f928E>
 70004b0:	c0001073          	unimp
 70004b4:	00090513          	mv	a0,s2
 70004b8:	000a0593          	mv	a1,s4
 70004bc:	00005097          	auipc	ra,0x5
 70004c0:	ea0080e7          	jalr	-352(ra) # 700535c <_ZN5alloc5alloc18handle_alloc_error17hf138f09b4614ca73E>
 70004c4:	c0001073          	unimp

070004c8 <_ZN105_$LT$$RF$mut$u20$risc0_zkvm..serde..serializer..Serializer$LT$W$GT$$u20$as$u20$serde..ser..Serializer$GT$24serialize_newtype_struct17hd21c72b76a9667caE>:
 70004c8:	fc010113          	add	sp,sp,-64
 70004cc:	02112e23          	sw	ra,60(sp)
 70004d0:	02812c23          	sw	s0,56(sp)
 70004d4:	02912a23          	sw	s1,52(sp)
 70004d8:	03212823          	sw	s2,48(sp)
 70004dc:	03312623          	sw	s3,44(sp)
 70004e0:	03412423          	sw	s4,40(sp)
 70004e4:	03512223          	sw	s5,36(sp)
 70004e8:	03612023          	sw	s6,32(sp)
 70004ec:	01712e23          	sw	s7,28(sp)
 70004f0:	01812c23          	sw	s8,24(sp)
 70004f4:	01912a23          	sw	s9,20(sp)
 70004f8:	01a12823          	sw	s10,16(sp)
 70004fc:	01b12623          	sw	s11,12(sp)
 7000500:	00068413          	mv	s0,a3
 7000504:	00000993          	li	s3,0
 7000508:	00052a03          	lw	s4,0(a0)
 700050c:	00410a93          	add	s5,sp,4
 7000510:	00080537          	lui	a0,0x80
 7000514:	03c50b13          	add	s6,a0,60 # 8003c <_ZN10risc0_zkvm5guest3env6HASHER17h2b2409cc96672782E>
 7000518:	004b0b93          	add	s7,s6,4
 700051c:	03b00c13          	li	s8,59
 7000520:	02000c93          	li	s9,32
 7000524:	04000d13          	li	s10,64
 7000528:	00cb0493          	add	s1,s6,12
 700052c:	0580006f          	j	7000584 <_ZN105_$LT$$RF$mut$u20$risc0_zkvm..serde..serializer..Serializer$LT$W$GT$$u20$as$u20$serde..ser..Serializer$GT$24serialize_newtype_struct17hd21c72b76a9667caE+0xbc>
 7000530:	40ad0633          	sub	a2,s10,a0
 7000534:	00ca8db3          	add	s11,s5,a2
 7000538:	fc450913          	add	s2,a0,-60
 700053c:	00a48533          	add	a0,s1,a0
 7000540:	00410593          	add	a1,sp,4
 7000544:	00001097          	auipc	ra,0x1
 7000548:	9e8080e7          	jalr	-1560(ra) # 7000f2c <memcpy>
 700054c:	00810513          	add	a0,sp,8
 7000550:	00100613          	li	a2,1
 7000554:	00048593          	mv	a1,s1
 7000558:	00000097          	auipc	ra,0x0
 700055c:	e14080e7          	jalr	-492(ra) # 700036c <_ZN82_$LT$digest..core_api..wrapper..CoreWrapper$LT$T$GT$$u20$as$u20$digest..Update$GT$6update28_$u7b$$u7b$closure$u7d$$u7d$17h573bffc5157467a5E.llvm.3318710579709553222>
 7000560:	fc097513          	and	a0,s2,-64
 7000564:	00ad85b3          	add	a1,s11,a0
 7000568:	00048513          	mv	a0,s1
 700056c:	00090613          	mv	a2,s2
 7000570:	00001097          	auipc	ra,0x1
 7000574:	9bc080e7          	jalr	-1604(ra) # 7000f2c <memcpy>
 7000578:	00498993          	add	s3,s3,4
 700057c:	052b0623          	sb	s2,76(s6)
 7000580:	07998263          	beq	s3,s9,70005e4 <_ZN105_$LT$$RF$mut$u20$risc0_zkvm..serde..serializer..Serializer$LT$W$GT$$u20$as$u20$serde..ser..Serializer$GT$24serialize_newtype_struct17hd21c72b76a9667caE+0x11c>
 7000584:	01340533          	add	a0,s0,s3
 7000588:	00052503          	lw	a0,0(a0)
 700058c:	00a12223          	sw	a0,4(sp)
 7000590:	000a2503          	lw	a0,0(s4)
 7000594:	00410593          	add	a1,sp,4
 7000598:	00400613          	li	a2,4
 700059c:	00001097          	auipc	ra,0x1
 70005a0:	47c080e7          	jalr	1148(ra) # 7001a18 <sys_write>
 70005a4:	04cb4503          	lbu	a0,76(s6)
 70005a8:	01712423          	sw	s7,8(sp)
 70005ac:	f8ac62e3          	bltu	s8,a0,7000530 <_ZN105_$LT$$RF$mut$u20$risc0_zkvm..serde..serializer..Serializer$LT$W$GT$$u20$as$u20$serde..ser..Serializer$GT$24serialize_newtype_struct17hd21c72b76a9667caE+0x68>
 70005b0:	00412583          	lw	a1,4(sp)
 70005b4:	00ab0633          	add	a2,s6,a0
 70005b8:	0185d693          	srl	a3,a1,0x18
 70005bc:	00d607a3          	sb	a3,15(a2)
 70005c0:	0105d693          	srl	a3,a1,0x10
 70005c4:	00d60723          	sb	a3,14(a2)
 70005c8:	0085d693          	srl	a3,a1,0x8
 70005cc:	00d606a3          	sb	a3,13(a2)
 70005d0:	00b60623          	sb	a1,12(a2)
 70005d4:	00450913          	add	s2,a0,4
 70005d8:	00498993          	add	s3,s3,4
 70005dc:	052b0623          	sb	s2,76(s6)
 70005e0:	fb9992e3          	bne	s3,s9,7000584 <_ZN105_$LT$$RF$mut$u20$risc0_zkvm..serde..serializer..Serializer$LT$W$GT$$u20$as$u20$serde..ser..Serializer$GT$24serialize_newtype_struct17hd21c72b76a9667caE+0xbc>
 70005e4:	00700513          	li	a0,7
 70005e8:	03c12083          	lw	ra,60(sp)
 70005ec:	03812403          	lw	s0,56(sp)
 70005f0:	03412483          	lw	s1,52(sp)
 70005f4:	03012903          	lw	s2,48(sp)
 70005f8:	02c12983          	lw	s3,44(sp)
 70005fc:	02812a03          	lw	s4,40(sp)
 7000600:	02412a83          	lw	s5,36(sp)
 7000604:	02012b03          	lw	s6,32(sp)
 7000608:	01c12b83          	lw	s7,28(sp)
 700060c:	01812c03          	lw	s8,24(sp)
 7000610:	01412c83          	lw	s9,20(sp)
 7000614:	01012d03          	lw	s10,16(sp)
 7000618:	00c12d83          	lw	s11,12(sp)
 700061c:	04010113          	add	sp,sp,64
 7000620:	00008067          	ret

07000624 <__rust_alloc>:
 7000624:	00000317          	auipc	t1,0x0
 7000628:	16830067          	jr	360(t1) # 700078c <__rg_alloc>

0700062c <__rust_dealloc>:
 700062c:	00000317          	auipc	t1,0x0
 7000630:	23030067          	jr	560(t1) # 700085c <__rg_dealloc>

07000634 <__rust_realloc>:
 7000634:	00000317          	auipc	t1,0x0
 7000638:	22c30067          	jr	556(t1) # 7000860 <__rg_realloc>

0700063c <__rust_alloc_error_handler>:
 700063c:	00005317          	auipc	t1,0x5
 7000640:	d3830067          	jr	-712(t1) # 7005374 <__rg_oom>

07000644 <_ZN66_$LT$risc0_zkvm..serde..err..Error$u20$as$u20$core..fmt..Debug$GT$3fmt17h3c786d5dede93f22E>:
 7000644:	00054503          	lbu	a0,0(a0)
 7000648:	00251513          	sll	a0,a0,0x2
 700064c:	07007637          	lui	a2,0x7007
 7000650:	ec460613          	add	a2,a2,-316 # 7006ec4 <.LJTI11_0>
 7000654:	00c50533          	add	a0,a0,a2
 7000658:	00052603          	lw	a2,0(a0)
 700065c:	00058513          	mv	a0,a1
 7000660:	00060067          	jr	a2

07000664 <.LBB11_1>:
 7000664:	070075b7          	lui	a1,0x7007
 7000668:	f4f58593          	add	a1,a1,-177 # 7006f4f <.Lanon.77d2c9b90b6215e7d65ccf8a10755e1e.13>
 700066c:	01200613          	li	a2,18
 7000670:	00006317          	auipc	t1,0x6
 7000674:	12830067          	jr	296(t1) # 7006798 <_ZN4core3fmt9Formatter9write_str17h5a06ea8a0614300dE>

07000678 <.LBB11_2>:
 7000678:	070075b7          	lui	a1,0x7007
 700067c:	f3d58593          	add	a1,a1,-195 # 7006f3d <.Lanon.77d2c9b90b6215e7d65ccf8a10755e1e.12>
 7000680:	01200613          	li	a2,18
 7000684:	00006317          	auipc	t1,0x6
 7000688:	11430067          	jr	276(t1) # 7006798 <_ZN4core3fmt9Formatter9write_str17h5a06ea8a0614300dE>

0700068c <.LBB11_3>:
 700068c:	070075b7          	lui	a1,0x7007
 7000690:	f2958593          	add	a1,a1,-215 # 7006f29 <.Lanon.77d2c9b90b6215e7d65ccf8a10755e1e.11>
 7000694:	01400613          	li	a2,20
 7000698:	00006317          	auipc	t1,0x6
 700069c:	10030067          	jr	256(t1) # 7006798 <_ZN4core3fmt9Formatter9write_str17h5a06ea8a0614300dE>

070006a0 <.LBB11_4>:
 70006a0:	070075b7          	lui	a1,0x7007
 70006a4:	f1758593          	add	a1,a1,-233 # 7006f17 <.Lanon.77d2c9b90b6215e7d65ccf8a10755e1e.10>
 70006a8:	01200613          	li	a2,18
 70006ac:	00006317          	auipc	t1,0x6
 70006b0:	0ec30067          	jr	236(t1) # 7006798 <_ZN4core3fmt9Formatter9write_str17h5a06ea8a0614300dE>

070006b4 <.LBB11_5>:
 70006b4:	070075b7          	lui	a1,0x7007
 70006b8:	eff58593          	add	a1,a1,-257 # 7006eff <.Lanon.77d2c9b90b6215e7d65ccf8a10755e1e.9>
 70006bc:	01800613          	li	a2,24
 70006c0:	00006317          	auipc	t1,0x6
 70006c4:	0d830067          	jr	216(t1) # 7006798 <_ZN4core3fmt9Formatter9write_str17h5a06ea8a0614300dE>

070006c8 <.LBB11_6>:
 70006c8:	070075b7          	lui	a1,0x7007
 70006cc:	ef358593          	add	a1,a1,-269 # 7006ef3 <.Lanon.77d2c9b90b6215e7d65ccf8a10755e1e.8>
 70006d0:	00c00613          	li	a2,12
 70006d4:	00006317          	auipc	t1,0x6
 70006d8:	0c430067          	jr	196(t1) # 7006798 <_ZN4core3fmt9Formatter9write_str17h5a06ea8a0614300dE>

070006dc <.LBB11_7>:
 70006dc:	070075b7          	lui	a1,0x7007
 70006e0:	ee058593          	add	a1,a1,-288 # 7006ee0 <.Lanon.77d2c9b90b6215e7d65ccf8a10755e1e.7>
 70006e4:	01300613          	li	a2,19
 70006e8:	00006317          	auipc	t1,0x6
 70006ec:	0b030067          	jr	176(t1) # 7006798 <_ZN4core3fmt9Formatter9write_str17h5a06ea8a0614300dE>

070006f0 <_ZN42_$LT$$RF$T$u20$as$u20$core..fmt..Debug$GT$3fmt17h1a2d438adcf69c0fE>:
 70006f0:	ff010113          	add	sp,sp,-16
 70006f4:	00112623          	sw	ra,12(sp)
 70006f8:	00812423          	sw	s0,8(sp)
 70006fc:	00912223          	sw	s1,4(sp)
 7000700:	00052483          	lw	s1,0(a0)
 7000704:	00058413          	mv	s0,a1
 7000708:	00058513          	mv	a0,a1
 700070c:	00006097          	auipc	ra,0x6
 7000710:	0f8080e7          	jalr	248(ra) # 7006804 <_ZN4core3fmt9Formatter15debug_lower_hex17h22bd00ca219cafc6E>
 7000714:	02050263          	beqz	a0,7000738 <_ZN42_$LT$$RF$T$u20$as$u20$core..fmt..Debug$GT$3fmt17h1a2d438adcf69c0fE+0x48>
 7000718:	00048513          	mv	a0,s1
 700071c:	00040593          	mv	a1,s0
 7000720:	00c12083          	lw	ra,12(sp)
 7000724:	00812403          	lw	s0,8(sp)
 7000728:	00412483          	lw	s1,4(sp)
 700072c:	01010113          	add	sp,sp,16
 7000730:	00005317          	auipc	t1,0x5
 7000734:	c5030067          	jr	-944(t1) # 7005380 <_ZN4core3fmt3num53_$LT$impl$u20$core..fmt..LowerHex$u20$for$u20$i32$GT$3fmt17he54497768046434cE>
 7000738:	00040513          	mv	a0,s0
 700073c:	00006097          	auipc	ra,0x6
 7000740:	0d8080e7          	jalr	216(ra) # 7006814 <_ZN4core3fmt9Formatter15debug_upper_hex17h41d667d487f5e853E>
 7000744:	02050263          	beqz	a0,7000768 <_ZN42_$LT$$RF$T$u20$as$u20$core..fmt..Debug$GT$3fmt17h1a2d438adcf69c0fE+0x78>
 7000748:	00048513          	mv	a0,s1
 700074c:	00040593          	mv	a1,s0
 7000750:	00c12083          	lw	ra,12(sp)
 7000754:	00812403          	lw	s0,8(sp)
 7000758:	00412483          	lw	s1,4(sp)
 700075c:	01010113          	add	sp,sp,16
 7000760:	00005317          	auipc	t1,0x5
 7000764:	cd030067          	jr	-816(t1) # 7005430 <_ZN4core3fmt3num53_$LT$impl$u20$core..fmt..UpperHex$u20$for$u20$i32$GT$3fmt17h6ea2fd24013bbc24E>
 7000768:	00048513          	mv	a0,s1
 700076c:	00040593          	mv	a1,s0
 7000770:	00c12083          	lw	ra,12(sp)
 7000774:	00812403          	lw	s0,8(sp)
 7000778:	00412483          	lw	s1,4(sp)
 700077c:	01010113          	add	sp,sp,16
 7000780:	00006317          	auipc	t1,0x6
 7000784:	69430067          	jr	1684(t1) # 7006e14 <_ZN4core3fmt3num3imp52_$LT$impl$u20$core..fmt..Display$u20$for$u20$u32$GT$3fmt17heab9e780deef2c77E>

07000788 <_ZN4core3ptr53drop_in_place$LT$core..alloc..layout..LayoutError$GT$17hea2b82c07cffb572E>:
 7000788:	00008067          	ret

0700078c <__rg_alloc>:
 700078c:	00400613          	li	a2,4
 7000790:	00b66463          	bltu	a2,a1,7000798 <__rg_alloc+0xc>
 7000794:	00400593          	li	a1,4
 7000798:	0015d613          	srl	a2,a1,0x1
 700079c:	555556b7          	lui	a3,0x55555
 70007a0:	55568693          	add	a3,a3,1365 # 55555555 <anon.811f17354c499ab9db5bac79de70cdc4.0.llvm.3008685313708409704+0x4e54cf5e>
 70007a4:	00d67633          	and	a2,a2,a3
 70007a8:	40c58633          	sub	a2,a1,a2
 70007ac:	333336b7          	lui	a3,0x33333
 70007b0:	33368693          	add	a3,a3,819 # 33333333 <anon.811f17354c499ab9db5bac79de70cdc4.0.llvm.3008685313708409704+0x2c32ad3c>
 70007b4:	00d67733          	and	a4,a2,a3
 70007b8:	00265613          	srl	a2,a2,0x2
 70007bc:	00d67633          	and	a2,a2,a3
 70007c0:	00c70633          	add	a2,a4,a2
 70007c4:	00465693          	srl	a3,a2,0x4
 70007c8:	00d60633          	add	a2,a2,a3
 70007cc:	0f0f16b7          	lui	a3,0xf0f1
 70007d0:	f0f68693          	add	a3,a3,-241 # f0f0f0f <anon.811f17354c499ab9db5bac79de70cdc4.0.llvm.3008685313708409704+0x80e8918>
 70007d4:	00d67633          	and	a2,a2,a3
 70007d8:	010106b7          	lui	a3,0x1010
 70007dc:	10168693          	add	a3,a3,257 # 1010101 <__stack_init$+0x810105>
 70007e0:	02d60633          	mul	a2,a2,a3
 70007e4:	01865613          	srl	a2,a2,0x18
 70007e8:	fff60693          	add	a3,a2,-1
 70007ec:	00d036b3          	snez	a3,a3
 70007f0:	80000737          	lui	a4,0x80000
 70007f4:	40b70733          	sub	a4,a4,a1
 70007f8:	00a73733          	sltu	a4,a4,a0
 70007fc:	00e6e6b3          	or	a3,a3,a4
 7000800:	02069663          	bnez	a3,700082c <__rg_alloc+0xa0>
 7000804:	00100693          	li	a3,1
 7000808:	00d60463          	beq	a2,a3,7000810 <__rg_alloc+0x84>
 700080c:	00000593          	li	a1,0
 7000810:	00b50533          	add	a0,a0,a1
 7000814:	fff50513          	add	a0,a0,-1
 7000818:	40b005b3          	neg	a1,a1
 700081c:	00b57533          	and	a0,a0,a1
 7000820:	00255513          	srl	a0,a0,0x2
 7000824:	00001317          	auipc	t1,0x1
 7000828:	21c30067          	jr	540(t1) # 7001a40 <sys_alloc_words>
 700082c:	ff010113          	add	sp,sp,-16
 7000830:	07007537          	lui	a0,0x7007
 7000834:	f6150513          	add	a0,a0,-159 # 7006f61 <.Lanon.168859b36f162421e63795dd2ae12a88.6>
 7000838:	070075b7          	lui	a1,0x7007
 700083c:	f8858693          	add	a3,a1,-120 # 7006f88 <.Lanon.168859b36f162421e63795dd2ae12a88.7>
 7000840:	070075b7          	lui	a1,0x7007
 7000844:	fd458713          	add	a4,a1,-44 # 7006fd4 <.Lanon.168859b36f162421e63795dd2ae12a88.9>
 7000848:	02700593          	li	a1,39
 700084c:	00810613          	add	a2,sp,8
 7000850:	00006097          	auipc	ra,0x6
 7000854:	370080e7          	jalr	880(ra) # 7006bc0 <_ZN4core6result13unwrap_failed17hf6bc9b148a5ba21eE>
 7000858:	c0001073          	unimp

0700085c <__rg_dealloc>:
 700085c:	00008067          	ret

07000860 <__rg_realloc>:
 7000860:	fe010113          	add	sp,sp,-32
 7000864:	00112e23          	sw	ra,28(sp)
 7000868:	00812c23          	sw	s0,24(sp)
 700086c:	00912a23          	sw	s1,20(sp)
 7000870:	01212823          	sw	s2,16(sp)
 7000874:	01312623          	sw	s3,12(sp)
 7000878:	00400713          	li	a4,4
 700087c:	00068913          	mv	s2,a3
 7000880:	00058413          	mv	s0,a1
 7000884:	00050493          	mv	s1,a0
 7000888:	00c76463          	bltu	a4,a2,7000890 <__rg_realloc+0x30>
 700088c:	00400613          	li	a2,4
 7000890:	00165513          	srl	a0,a2,0x1
 7000894:	555555b7          	lui	a1,0x55555
 7000898:	55558593          	add	a1,a1,1365 # 55555555 <anon.811f17354c499ab9db5bac79de70cdc4.0.llvm.3008685313708409704+0x4e54cf5e>
 700089c:	00b57533          	and	a0,a0,a1
 70008a0:	40a60533          	sub	a0,a2,a0
 70008a4:	333335b7          	lui	a1,0x33333
 70008a8:	33358593          	add	a1,a1,819 # 33333333 <anon.811f17354c499ab9db5bac79de70cdc4.0.llvm.3008685313708409704+0x2c32ad3c>
 70008ac:	00b576b3          	and	a3,a0,a1
 70008b0:	00255513          	srl	a0,a0,0x2
 70008b4:	00b57533          	and	a0,a0,a1
 70008b8:	00a68533          	add	a0,a3,a0
 70008bc:	00455593          	srl	a1,a0,0x4
 70008c0:	00b50533          	add	a0,a0,a1
 70008c4:	0f0f15b7          	lui	a1,0xf0f1
 70008c8:	f0f58593          	add	a1,a1,-241 # f0f0f0f <anon.811f17354c499ab9db5bac79de70cdc4.0.llvm.3008685313708409704+0x80e8918>
 70008cc:	00b57533          	and	a0,a0,a1
 70008d0:	010105b7          	lui	a1,0x1010
 70008d4:	10158593          	add	a1,a1,257 # 1010101 <__stack_init$+0x810105>
 70008d8:	02b50533          	mul	a0,a0,a1
 70008dc:	01855513          	srl	a0,a0,0x18
 70008e0:	fff50593          	add	a1,a0,-1
 70008e4:	00b035b3          	snez	a1,a1
 70008e8:	800006b7          	lui	a3,0x80000
 70008ec:	40c686b3          	sub	a3,a3,a2
 70008f0:	0126b6b3          	sltu	a3,a3,s2
 70008f4:	00d5e5b3          	or	a1,a1,a3
 70008f8:	06059863          	bnez	a1,7000968 <__rg_realloc+0x108>
 70008fc:	00100593          	li	a1,1
 7000900:	00b50463          	beq	a0,a1,7000908 <__rg_realloc+0xa8>
 7000904:	00000613          	li	a2,0
 7000908:	00c90533          	add	a0,s2,a2
 700090c:	fff50513          	add	a0,a0,-1
 7000910:	40c005b3          	neg	a1,a2
 7000914:	00b57533          	and	a0,a0,a1
 7000918:	00255513          	srl	a0,a0,0x2
 700091c:	00001097          	auipc	ra,0x1
 7000920:	124080e7          	jalr	292(ra) # 7001a40 <sys_alloc_words>
 7000924:	00050993          	mv	s3,a0
 7000928:	02050063          	beqz	a0,7000948 <__rg_realloc+0xe8>
 700092c:	01246463          	bltu	s0,s2,7000934 <__rg_realloc+0xd4>
 7000930:	00090413          	mv	s0,s2
 7000934:	00098513          	mv	a0,s3
 7000938:	00048593          	mv	a1,s1
 700093c:	00040613          	mv	a2,s0
 7000940:	00000097          	auipc	ra,0x0
 7000944:	5ec080e7          	jalr	1516(ra) # 7000f2c <memcpy>
 7000948:	00098513          	mv	a0,s3
 700094c:	01c12083          	lw	ra,28(sp)
 7000950:	01812403          	lw	s0,24(sp)
 7000954:	01412483          	lw	s1,20(sp)
 7000958:	01012903          	lw	s2,16(sp)
 700095c:	00c12983          	lw	s3,12(sp)
 7000960:	02010113          	add	sp,sp,32
 7000964:	00008067          	ret
 7000968:	07007537          	lui	a0,0x7007
 700096c:	f6150513          	add	a0,a0,-159 # 7006f61 <.Lanon.168859b36f162421e63795dd2ae12a88.6>
 7000970:	070075b7          	lui	a1,0x7007
 7000974:	f8858693          	add	a3,a1,-120 # 7006f88 <.Lanon.168859b36f162421e63795dd2ae12a88.7>
 7000978:	070075b7          	lui	a1,0x7007
 700097c:	fd458713          	add	a4,a1,-44 # 7006fd4 <.Lanon.168859b36f162421e63795dd2ae12a88.9>
 7000980:	02700593          	li	a1,39
 7000984:	00810613          	add	a2,sp,8
 7000988:	00006097          	auipc	ra,0x6
 700098c:	238080e7          	jalr	568(ra) # 7006bc0 <_ZN4core6result13unwrap_failed17hf6bc9b148a5ba21eE>
 7000990:	c0001073          	unimp

07000994 <_ZN10risc0_zkvm5guest3sha15copy_and_update17heb0ab7bc2bc5a02dE>:
 7000994:	fb010113          	add	sp,sp,-80
 7000998:	04112623          	sw	ra,76(sp)
 700099c:	04812423          	sw	s0,72(sp)
 70009a0:	04912223          	sw	s1,68(sp)
 70009a4:	05212023          	sw	s2,64(sp)
 70009a8:	03312e23          	sw	s3,60(sp)
 70009ac:	03412c23          	sw	s4,56(sp)
 70009b0:	03512a23          	sw	s5,52(sp)
 70009b4:	03612823          	sw	s6,48(sp)
 70009b8:	03712623          	sw	s7,44(sp)
 70009bc:	03812423          	sw	s8,40(sp)
 70009c0:	03912223          	sw	s9,36(sp)
 70009c4:	00078913          	mv	s2,a5
 70009c8:	00070b13          	mv	s6,a4
 70009cc:	00068a93          	mv	s5,a3
 70009d0:	00060b93          	mv	s7,a2
 70009d4:	00058493          	mv	s1,a1
 70009d8:	00050413          	mv	s0,a0
 70009dc:	04070663          	beqz	a4,7000a28 <_ZN10risc0_zkvm5guest3sha15copy_and_update17heb0ab7bc2bc5a02dE+0x94>
 70009e0:	03fa8513          	add	a0,s5,63
 70009e4:	00255513          	srl	a0,a0,0x2
 70009e8:	ff057c93          	and	s9,a0,-16
 70009ec:	040c8863          	beqz	s9,7000a3c <_ZN10risc0_zkvm5guest3sha15copy_and_update17heb0ab7bc2bc5a02dE+0xa8>
 70009f0:	01dcd513          	srl	a0,s9,0x1d
 70009f4:	1e051663          	bnez	a0,7000be0 <_ZN10risc0_zkvm5guest3sha15copy_and_update17heb0ab7bc2bc5a02dE+0x24c>
 70009f8:	002c9993          	sll	s3,s9,0x2
 70009fc:	1e09c263          	bltz	s3,7000be0 <_ZN10risc0_zkvm5guest3sha15copy_and_update17heb0ab7bc2bc5a02dE+0x24c>
 7000a00:	00153513          	seqz	a0,a0
 7000a04:	00251c13          	sll	s8,a0,0x2
 7000a08:	04098063          	beqz	s3,7000a48 <_ZN10risc0_zkvm5guest3sha15copy_and_update17heb0ab7bc2bc5a02dE+0xb4>
 7000a0c:	00098513          	mv	a0,s3
 7000a10:	000c0593          	mv	a1,s8
 7000a14:	00000097          	auipc	ra,0x0
 7000a18:	c10080e7          	jalr	-1008(ra) # 7000624 <__rust_alloc>
 7000a1c:	00050a13          	mv	s4,a0
 7000a20:	020a1863          	bnez	s4,7000a50 <_ZN10risc0_zkvm5guest3sha15copy_and_update17heb0ab7bc2bc5a02dE+0xbc>
 7000a24:	1e80006f          	j	7000c0c <_ZN10risc0_zkvm5guest3sha15copy_and_update17heb0ab7bc2bc5a02dE+0x278>
 7000a28:	004a8513          	add	a0,s5,4
 7000a2c:	00255513          	srl	a0,a0,0x2
 7000a30:	01150513          	add	a0,a0,17
 7000a34:	ff057c93          	and	s9,a0,-16
 7000a38:	fa0c9ce3          	bnez	s9,70009f0 <_ZN10risc0_zkvm5guest3sha15copy_and_update17heb0ab7bc2bc5a02dE+0x5c>
 7000a3c:	00000993          	li	s3,0
 7000a40:	00400a13          	li	s4,4
 7000a44:	00c0006f          	j	7000a50 <_ZN10risc0_zkvm5guest3sha15copy_and_update17heb0ab7bc2bc5a02dE+0xbc>
 7000a48:	000c0a13          	mv	s4,s8
 7000a4c:	1c0a0063          	beqz	s4,7000c0c <_ZN10risc0_zkvm5guest3sha15copy_and_update17heb0ab7bc2bc5a02dE+0x278>
 7000a50:	1959ee63          	bltu	s3,s5,7000bec <_ZN10risc0_zkvm5guest3sha15copy_and_update17heb0ab7bc2bc5a02dE+0x258>
 7000a54:	000a0513          	mv	a0,s4
 7000a58:	000b8593          	mv	a1,s7
 7000a5c:	000a8613          	mv	a2,s5
 7000a60:	00000097          	auipc	ra,0x0
 7000a64:	4cc080e7          	jalr	1228(ra) # 7000f2c <memcpy>
 7000a68:	015a0533          	add	a0,s4,s5
 7000a6c:	080b0863          	beqz	s6,7000afc <_ZN10risc0_zkvm5guest3sha15copy_and_update17heb0ab7bc2bc5a02dE+0x168>
 7000a70:	41598633          	sub	a2,s3,s5
 7000a74:	00000593          	li	a1,0
 7000a78:	00000097          	auipc	ra,0x0
 7000a7c:	3bc080e7          	jalr	956(ra) # 7000e34 <memset>
 7000a80:	0e0c9463          	bnez	s9,7000b68 <_ZN10risc0_zkvm5guest3sha15copy_and_update17heb0ab7bc2bc5a02dE+0x1d4>
 7000a84:	04848263          	beq	s1,s0,7000ac8 <_ZN10risc0_zkvm5guest3sha15copy_and_update17heb0ab7bc2bc5a02dE+0x134>
 7000a88:	0004a503          	lw	a0,0(s1)
 7000a8c:	0044a583          	lw	a1,4(s1)
 7000a90:	0084a603          	lw	a2,8(s1)
 7000a94:	00c4a683          	lw	a3,12(s1)
 7000a98:	01c4a703          	lw	a4,28(s1)
 7000a9c:	0184a783          	lw	a5,24(s1)
 7000aa0:	0144a803          	lw	a6,20(s1)
 7000aa4:	0104a883          	lw	a7,16(s1)
 7000aa8:	00e42e23          	sw	a4,28(s0)
 7000aac:	00f42c23          	sw	a5,24(s0)
 7000ab0:	01042a23          	sw	a6,20(s0)
 7000ab4:	01142823          	sw	a7,16(s0)
 7000ab8:	00d42623          	sw	a3,12(s0)
 7000abc:	00c42423          	sw	a2,8(s0)
 7000ac0:	00b42223          	sw	a1,4(s0)
 7000ac4:	00a42023          	sw	a0,0(s0)
 7000ac8:	04c12083          	lw	ra,76(sp)
 7000acc:	04812403          	lw	s0,72(sp)
 7000ad0:	04412483          	lw	s1,68(sp)
 7000ad4:	04012903          	lw	s2,64(sp)
 7000ad8:	03c12983          	lw	s3,60(sp)
 7000adc:	03812a03          	lw	s4,56(sp)
 7000ae0:	03412a83          	lw	s5,52(sp)
 7000ae4:	03012b03          	lw	s6,48(sp)
 7000ae8:	02c12b83          	lw	s7,44(sp)
 7000aec:	02812c03          	lw	s8,40(sp)
 7000af0:	02412c83          	lw	s9,36(sp)
 7000af4:	05010113          	add	sp,sp,80
 7000af8:	00008067          	ret
 7000afc:	08000593          	li	a1,128
 7000b00:	00b50023          	sb	a1,0(a0)
 7000b04:	00150513          	add	a0,a0,1
 7000b08:	fffac593          	not	a1,s5
 7000b0c:	00b98633          	add	a2,s3,a1
 7000b10:	00000593          	li	a1,0
 7000b14:	00000097          	auipc	ra,0x0
 7000b18:	320080e7          	jalr	800(ra) # 7000e34 <memset>
 7000b1c:	fffc8513          	add	a0,s9,-1
 7000b20:	0a0c8463          	beqz	s9,7000bc8 <_ZN10risc0_zkvm5guest3sha15copy_and_update17heb0ab7bc2bc5a02dE+0x234>
 7000b24:	00251513          	sll	a0,a0,0x2
 7000b28:	00aa05b3          	add	a1,s4,a0
 7000b2c:	0005a503          	lw	a0,0(a1)
 7000b30:	0e051863          	bnez	a0,7000c20 <_ZN10risc0_zkvm5guest3sha15copy_and_update17heb0ab7bc2bc5a02dE+0x28c>
 7000b34:	00895513          	srl	a0,s2,0x8
 7000b38:	00010637          	lui	a2,0x10
 7000b3c:	f0060613          	add	a2,a2,-256 # ff00 <__bss_size+0xfe78>
 7000b40:	00c57533          	and	a0,a0,a2
 7000b44:	01895613          	srl	a2,s2,0x18
 7000b48:	00c56533          	or	a0,a0,a2
 7000b4c:	00891613          	sll	a2,s2,0x8
 7000b50:	00ff06b7          	lui	a3,0xff0
 7000b54:	00d67633          	and	a2,a2,a3
 7000b58:	01891693          	sll	a3,s2,0x18
 7000b5c:	00c6e633          	or	a2,a3,a2
 7000b60:	00a66533          	or	a0,a2,a0
 7000b64:	00a5a023          	sw	a0,0(a1)
 7000b68:	004cd713          	srl	a4,s9,0x4
 7000b6c:	020a0693          	add	a3,s4,32
 7000b70:	00300293          	li	t0,3
 7000b74:	00040513          	mv	a0,s0
 7000b78:	00048593          	mv	a1,s1
 7000b7c:	000a0613          	mv	a2,s4
 7000b80:	00000073          	ecall
 7000b84:	00400613          	li	a2,4
 7000b88:	000a0513          	mv	a0,s4
 7000b8c:	00098593          	mv	a1,s3
 7000b90:	04c12083          	lw	ra,76(sp)
 7000b94:	04812403          	lw	s0,72(sp)
 7000b98:	04412483          	lw	s1,68(sp)
 7000b9c:	04012903          	lw	s2,64(sp)
 7000ba0:	03c12983          	lw	s3,60(sp)
 7000ba4:	03812a03          	lw	s4,56(sp)
 7000ba8:	03412a83          	lw	s5,52(sp)
 7000bac:	03012b03          	lw	s6,48(sp)
 7000bb0:	02c12b83          	lw	s7,44(sp)
 7000bb4:	02812c03          	lw	s8,40(sp)
 7000bb8:	02412c83          	lw	s9,36(sp)
 7000bbc:	05010113          	add	sp,sp,80
 7000bc0:	00000317          	auipc	t1,0x0
 7000bc4:	a6c30067          	jr	-1428(t1) # 700062c <__rust_dealloc>
 7000bc8:	070075b7          	lui	a1,0x7007
 7000bcc:	06058613          	add	a2,a1,96 # 7007060 <.Lanon.80577616105d4affeb49518242f7e98e.4>
 7000bd0:	00000593          	li	a1,0
 7000bd4:	00006097          	auipc	ra,0x6
 7000bd8:	e14080e7          	jalr	-492(ra) # 70069e8 <_ZN4core9panicking18panic_bounds_check17hd6f9d989a7703a3eE>
 7000bdc:	c0001073          	unimp
 7000be0:	00004097          	auipc	ra,0x4
 7000be4:	738080e7          	jalr	1848(ra) # 7005318 <_ZN5alloc7raw_vec17capacity_overflow17h59e3baefeac9f928E>
 7000be8:	c0001073          	unimp
 7000bec:	07007537          	lui	a0,0x7007
 7000bf0:	01c50513          	add	a0,a0,28 # 700701c <.Lanon.80577616105d4affeb49518242f7e98e.2>
 7000bf4:	070075b7          	lui	a1,0x7007
 7000bf8:	05058613          	add	a2,a1,80 # 7007050 <.Lanon.80577616105d4affeb49518242f7e98e.3>
 7000bfc:	03300593          	li	a1,51
 7000c00:	00006097          	auipc	ra,0x6
 7000c04:	da4080e7          	jalr	-604(ra) # 70069a4 <_ZN4core9panicking5panic17h5d0c0b97b225c667E>
 7000c08:	c0001073          	unimp
 7000c0c:	00098513          	mv	a0,s3
 7000c10:	000c0593          	mv	a1,s8
 7000c14:	00004097          	auipc	ra,0x4
 7000c18:	748080e7          	jalr	1864(ra) # 700535c <_ZN5alloc5alloc18handle_alloc_error17hf138f09b4614ca73E>
 7000c1c:	c0001073          	unimp
 7000c20:	00012423          	sw	zero,8(sp)
 7000c24:	07007537          	lui	a0,0x7007
 7000c28:	07450613          	add	a2,a0,116 # 7007074 <anon.1375604a764ae3db9d6e47da8ae90e8a.11.llvm.679149048231815736+0x4>
 7000c2c:	07007537          	lui	a0,0x7007
 7000c30:	07850713          	add	a4,a0,120 # 7007078 <.Lanon.80577616105d4affeb49518242f7e98e.6>
 7000c34:	00810693          	add	a3,sp,8
 7000c38:	00000513          	li	a0,0
 7000c3c:	00000097          	auipc	ra,0x0
 7000c40:	164080e7          	jalr	356(ra) # 7000da0 <_ZN4core9panicking13assert_failed17h687d8610d3bac58dE>
 7000c44:	c0001073          	unimp

07000c48 <_ZN83_$LT$risc0_zkvm..guest..sha..Impl$u20$as$u20$risc0_zkp..core..hash..sha..Sha256$GT$10hash_bytes17h36140a96bf7ce2e5E>:
 7000c48:	ff010113          	add	sp,sp,-16
 7000c4c:	00112623          	sw	ra,12(sp)
 7000c50:	00812423          	sw	s0,8(sp)
 7000c54:	00912223          	sw	s1,4(sp)
 7000c58:	01212023          	sw	s2,0(sp)
 7000c5c:	00058493          	mv	s1,a1
 7000c60:	00050913          	mv	s2,a0
 7000c64:	04000513          	li	a0,64
 7000c68:	00400593          	li	a1,4
 7000c6c:	00000097          	auipc	ra,0x0
 7000c70:	9b8080e7          	jalr	-1608(ra) # 7000624 <__rust_alloc>
 7000c74:	00050413          	mv	s0,a0
 7000c78:	00390513          	add	a0,s2,3
 7000c7c:	ffc57593          	and	a1,a0,-4
 7000c80:	41258533          	sub	a0,a1,s2
 7000c84:	00349793          	sll	a5,s1,0x3
 7000c88:	02a4f063          	bgeu	s1,a0,7000ca8 <_ZN83_$LT$risc0_zkvm..guest..sha..Impl$u20$as$u20$risc0_zkp..core..hash..sha..Sha256$GT$10hash_bytes17h36140a96bf7ce2e5E+0x60>
 7000c8c:	04049463          	bnez	s1,7000cd4 <_ZN83_$LT$risc0_zkvm..guest..sha..Impl$u20$as$u20$risc0_zkp..core..hash..sha..Sha256$GT$10hash_bytes17h36140a96bf7ce2e5E+0x8c>
 7000c90:	00000813          	li	a6,0
 7000c94:	07007537          	lui	a0,0x7007
 7000c98:	21050593          	add	a1,a0,528 # 7007210 <_ZN9risc0_zkp4core4hash3sha11SHA256_INIT17h62e1cd879e97d403E>
 7000c9c:	07007537          	lui	a0,0x7007
 7000ca0:	09850893          	add	a7,a0,152 # 7007098 <.Lanon.2e428254a4f422f96131b722f5510c98.1>
 7000ca4:	0640006f          	j	7000d08 <_ZN83_$LT$risc0_zkvm..guest..sha..Impl$u20$as$u20$risc0_zkp..core..hash..sha..Sha256$GT$10hash_bytes17h36140a96bf7ce2e5E+0xc0>
 7000ca8:	03259663          	bne	a1,s2,7000cd4 <_ZN83_$LT$risc0_zkvm..guest..sha..Impl$u20$as$u20$risc0_zkp..core..hash..sha..Sha256$GT$10hash_bytes17h36140a96bf7ce2e5E+0x8c>
 7000cac:	00a90633          	add	a2,s2,a0
 7000cb0:	40a48533          	sub	a0,s1,a0
 7000cb4:	03f57813          	and	a6,a0,63
 7000cb8:	fc057593          	and	a1,a0,-64
 7000cbc:	00b608b3          	add	a7,a2,a1
 7000cc0:	03f00693          	li	a3,63
 7000cc4:	070075b7          	lui	a1,0x7007
 7000cc8:	02a6e263          	bltu	a3,a0,7000cec <_ZN83_$LT$risc0_zkvm..guest..sha..Impl$u20$as$u20$risc0_zkp..core..hash..sha..Sha256$GT$10hash_bytes17h36140a96bf7ce2e5E+0xa4>
 7000ccc:	21058593          	add	a1,a1,528 # 7007210 <_ZN9risc0_zkp4core4hash3sha11SHA256_INIT17h62e1cd879e97d403E>
 7000cd0:	0380006f          	j	7000d08 <_ZN83_$LT$risc0_zkvm..guest..sha..Impl$u20$as$u20$risc0_zkp..core..hash..sha..Sha256$GT$10hash_bytes17h36140a96bf7ce2e5E+0xc0>
 7000cd4:	07007537          	lui	a0,0x7007
 7000cd8:	21050593          	add	a1,a0,528 # 7007210 <_ZN9risc0_zkp4core4hash3sha11SHA256_INIT17h62e1cd879e97d403E>
 7000cdc:	00040513          	mv	a0,s0
 7000ce0:	00090613          	mv	a2,s2
 7000ce4:	00048693          	mv	a3,s1
 7000ce8:	02c0006f          	j	7000d14 <_ZN83_$LT$risc0_zkvm..guest..sha..Impl$u20$as$u20$risc0_zkp..core..hash..sha..Sha256$GT$10hash_bytes17h36140a96bf7ce2e5E+0xcc>
 7000cec:	00655713          	srl	a4,a0,0x6
 7000cf0:	02060693          	add	a3,a2,32
 7000cf4:	21058593          	add	a1,a1,528
 7000cf8:	00300293          	li	t0,3
 7000cfc:	00040513          	mv	a0,s0
 7000d00:	00000073          	ecall
 7000d04:	00040593          	mv	a1,s0
 7000d08:	00040513          	mv	a0,s0
 7000d0c:	00088613          	mv	a2,a7
 7000d10:	00080693          	mv	a3,a6
 7000d14:	00000713          	li	a4,0
 7000d18:	00000097          	auipc	ra,0x0
 7000d1c:	c7c080e7          	jalr	-900(ra) # 7000994 <_ZN10risc0_zkvm5guest3sha15copy_and_update17heb0ab7bc2bc5a02dE>
 7000d20:	00040513          	mv	a0,s0
 7000d24:	00c12083          	lw	ra,12(sp)
 7000d28:	00812403          	lw	s0,8(sp)
 7000d2c:	00412483          	lw	s1,4(sp)
 7000d30:	00012903          	lw	s2,0(sp)
 7000d34:	01010113          	add	sp,sp,16
 7000d38:	00008067          	ret

07000d3c <_ZN83_$LT$risc0_zkvm..guest..sha..Impl$u20$as$u20$risc0_zkp..core..hash..sha..Sha256$GT$14compress_slice17hbbce71a927f87c81E>:
 7000d3c:	ff010113          	add	sp,sp,-16
 7000d40:	00112623          	sw	ra,12(sp)
 7000d44:	00812423          	sw	s0,8(sp)
 7000d48:	00912223          	sw	s1,4(sp)
 7000d4c:	01212023          	sw	s2,0(sp)
 7000d50:	00060413          	mv	s0,a2
 7000d54:	00058493          	mv	s1,a1
 7000d58:	00050913          	mv	s2,a0
 7000d5c:	04000513          	li	a0,64
 7000d60:	00400593          	li	a1,4
 7000d64:	00000097          	auipc	ra,0x0
 7000d68:	8c0080e7          	jalr	-1856(ra) # 7000624 <__rust_alloc>
 7000d6c:	02048693          	add	a3,s1,32
 7000d70:	00300293          	li	t0,3
 7000d74:	00090593          	mv	a1,s2
 7000d78:	00048613          	mv	a2,s1
 7000d7c:	00040713          	mv	a4,s0
 7000d80:	00000073          	ecall
 7000d84:	00c12083          	lw	ra,12(sp)
 7000d88:	00812403          	lw	s0,8(sp)
 7000d8c:	00412483          	lw	s1,4(sp)
 7000d90:	00012903          	lw	s2,0(sp)
 7000d94:	01010113          	add	sp,sp,16
 7000d98:	00008067          	ret

07000d9c <_ZN4core3ptr28drop_in_place$LT$$RF$u32$GT$17h1062ad55ea5f99d8E.llvm.16866018416088645210>:
 7000d9c:	00008067          	ret

07000da0 <_ZN4core9panicking13assert_failed17h687d8610d3bac58dE>:
 7000da0:	fe010113          	add	sp,sp,-32
 7000da4:	00070813          	mv	a6,a4
 7000da8:	0146a703          	lw	a4,20(a3) # ff0014 <__stack_init$+0x7f0018>
 7000dac:	0106a783          	lw	a5,16(a3)
 7000db0:	00b12023          	sw	a1,0(sp)
 7000db4:	00c12223          	sw	a2,4(sp)
 7000db8:	00e12e23          	sw	a4,28(sp)
 7000dbc:	00f12c23          	sw	a5,24(sp)
 7000dc0:	00c6a583          	lw	a1,12(a3)
 7000dc4:	0086a603          	lw	a2,8(a3)
 7000dc8:	0046a703          	lw	a4,4(a3)
 7000dcc:	0006a683          	lw	a3,0(a3)
 7000dd0:	00b12a23          	sw	a1,20(sp)
 7000dd4:	00c12823          	sw	a2,16(sp)
 7000dd8:	00e12623          	sw	a4,12(sp)
 7000ddc:	00d12423          	sw	a3,8(sp)
 7000de0:	070075b7          	lui	a1,0x7007
 7000de4:	08858613          	add	a2,a1,136 # 7007088 <anon.5feb350ac14d271e27b53533b92778e4.3.llvm.16866018416088645210>
 7000de8:	00010593          	mv	a1,sp
 7000dec:	00410693          	add	a3,sp,4
 7000df0:	00810793          	add	a5,sp,8
 7000df4:	00060713          	mv	a4,a2
 7000df8:	00006097          	auipc	ra,0x6
 7000dfc:	c54080e7          	jalr	-940(ra) # 7006a4c <_ZN4core9panicking19assert_failed_inner17he0576c9d7ff9f73bE>
 7000e00:	c0001073          	unimp

07000e04 <_ZN4core5slice29_$LT$impl$u20$$u5b$T$u5d$$GT$15copy_from_slice17h9921693fe10a61f1E>:
 7000e04:	00058793          	mv	a5,a1
 7000e08:	00d59a63          	bne	a1,a3,7000e1c <_ZN4core5slice29_$LT$impl$u20$$u5b$T$u5d$$GT$15copy_from_slice17h9921693fe10a61f1E+0x18>
 7000e0c:	00060593          	mv	a1,a2
 7000e10:	00078613          	mv	a2,a5
 7000e14:	00000317          	auipc	t1,0x0
 7000e18:	11830067          	jr	280(t1) # 7000f2c <memcpy>
 7000e1c:	00078513          	mv	a0,a5
 7000e20:	00068593          	mv	a1,a3
 7000e24:	00070613          	mv	a2,a4
 7000e28:	00004097          	auipc	ra,0x4
 7000e2c:	6b8080e7          	jalr	1720(ra) # 70054e0 <_ZN4core5slice29_$LT$impl$u20$$u5b$T$u5d$$GT$15copy_from_slice17len_mismatch_fail17haa866e184ec9b31cE>
 7000e30:	c0001073          	unimp

07000e34 <memset>:
 7000e34:	0e060a63          	beqz	a2,7000f28 <memset+0xf4>
 7000e38:	00b50023          	sb	a1,0(a0)
 7000e3c:	00a606b3          	add	a3,a2,a0
 7000e40:	00300713          	li	a4,3
 7000e44:	feb68fa3          	sb	a1,-1(a3)
 7000e48:	0ee66063          	bltu	a2,a4,7000f28 <memset+0xf4>
 7000e4c:	00b500a3          	sb	a1,1(a0)
 7000e50:	00b50123          	sb	a1,2(a0)
 7000e54:	feb68f23          	sb	a1,-2(a3)
 7000e58:	00700713          	li	a4,7
 7000e5c:	feb68ea3          	sb	a1,-3(a3)
 7000e60:	0ce66463          	bltu	a2,a4,7000f28 <memset+0xf4>
 7000e64:	00b501a3          	sb	a1,3(a0)
 7000e68:	00900793          	li	a5,9
 7000e6c:	feb68e23          	sb	a1,-4(a3)
 7000e70:	0af66c63          	bltu	a2,a5,7000f28 <memset+0xf4>
 7000e74:	40a006b3          	neg	a3,a0
 7000e78:	0036f713          	and	a4,a3,3
 7000e7c:	00e506b3          	add	a3,a0,a4
 7000e80:	40e60633          	sub	a2,a2,a4
 7000e84:	ffc67613          	and	a2,a2,-4
 7000e88:	0ff5f593          	zext.b	a1,a1
 7000e8c:	01010737          	lui	a4,0x1010
 7000e90:	10170713          	add	a4,a4,257 # 1010101 <__stack_init$+0x810105>
 7000e94:	02e585b3          	mul	a1,a1,a4
 7000e98:	00b6a023          	sw	a1,0(a3)
 7000e9c:	00c68733          	add	a4,a3,a2
 7000ea0:	feb72e23          	sw	a1,-4(a4)
 7000ea4:	08f66263          	bltu	a2,a5,7000f28 <memset+0xf4>
 7000ea8:	00b6a223          	sw	a1,4(a3)
 7000eac:	00b6a423          	sw	a1,8(a3)
 7000eb0:	feb72a23          	sw	a1,-12(a4)
 7000eb4:	01900793          	li	a5,25
 7000eb8:	feb72c23          	sw	a1,-8(a4)
 7000ebc:	06f66663          	bltu	a2,a5,7000f28 <memset+0xf4>
 7000ec0:	00b6a623          	sw	a1,12(a3)
 7000ec4:	00b6a823          	sw	a1,16(a3)
 7000ec8:	00b6aa23          	sw	a1,20(a3)
 7000ecc:	00b6ac23          	sw	a1,24(a3)
 7000ed0:	feb72223          	sw	a1,-28(a4)
 7000ed4:	feb72423          	sw	a1,-24(a4)
 7000ed8:	feb72623          	sw	a1,-20(a4)
 7000edc:	0046f793          	and	a5,a3,4
 7000ee0:	0187e793          	or	a5,a5,24
 7000ee4:	40f60633          	sub	a2,a2,a5
 7000ee8:	02000813          	li	a6,32
 7000eec:	feb72823          	sw	a1,-16(a4)
 7000ef0:	03066c63          	bltu	a2,a6,7000f28 <memset+0xf4>
 7000ef4:	00f686b3          	add	a3,a3,a5
 7000ef8:	01f00713          	li	a4,31
 7000efc:	00b6a023          	sw	a1,0(a3)
 7000f00:	00b6a223          	sw	a1,4(a3)
 7000f04:	00b6a423          	sw	a1,8(a3)
 7000f08:	00b6a623          	sw	a1,12(a3)
 7000f0c:	00b6a823          	sw	a1,16(a3)
 7000f10:	00b6aa23          	sw	a1,20(a3)
 7000f14:	00b6ac23          	sw	a1,24(a3)
 7000f18:	00b6ae23          	sw	a1,28(a3)
 7000f1c:	fe060613          	add	a2,a2,-32
 7000f20:	02068693          	add	a3,a3,32
 7000f24:	fcc76ce3          	bltu	a4,a2,7000efc <memset+0xc8>
 7000f28:	00008067          	ret

07000f2c <memcpy>:
 7000f2c:	0035f693          	and	a3,a1,3
 7000f30:	0016b693          	seqz	a3,a3
 7000f34:	00163713          	seqz	a4,a2
 7000f38:	00e6e6b3          	or	a3,a3,a4
 7000f3c:	0e069c63          	bnez	a3,7001034 <memcpy+0x108>
 7000f40:	00158793          	add	a5,a1,1
 7000f44:	00050813          	mv	a6,a0
 7000f48:	00058883          	lb	a7,0(a1)
 7000f4c:	00158713          	add	a4,a1,1
 7000f50:	00180693          	add	a3,a6,1
 7000f54:	01180023          	sb	a7,0(a6)
 7000f58:	fff60613          	add	a2,a2,-1
 7000f5c:	0037f593          	and	a1,a5,3
 7000f60:	00b035b3          	snez	a1,a1
 7000f64:	00c03833          	snez	a6,a2
 7000f68:	0105f8b3          	and	a7,a1,a6
 7000f6c:	00178793          	add	a5,a5,1
 7000f70:	00070593          	mv	a1,a4
 7000f74:	00068813          	mv	a6,a3
 7000f78:	fc0898e3          	bnez	a7,7000f48 <memcpy+0x1c>
 7000f7c:	0036f593          	and	a1,a3,3
 7000f80:	0c058263          	beqz	a1,7001044 <memcpy+0x118>
 7000f84:	02000793          	li	a5,32
 7000f88:	22f66e63          	bltu	a2,a5,70011c4 <memcpy+0x298>
 7000f8c:	00300793          	li	a5,3
 7000f90:	12f58663          	beq	a1,a5,70010bc <memcpy+0x190>
 7000f94:	00200793          	li	a5,2
 7000f98:	1af58263          	beq	a1,a5,700113c <memcpy+0x210>
 7000f9c:	00100793          	li	a5,1
 7000fa0:	22f59263          	bne	a1,a5,70011c4 <memcpy+0x298>
 7000fa4:	00072783          	lw	a5,0(a4)
 7000fa8:	00f68023          	sb	a5,0(a3)
 7000fac:	0087d593          	srl	a1,a5,0x8
 7000fb0:	00b680a3          	sb	a1,1(a3)
 7000fb4:	0107d813          	srl	a6,a5,0x10
 7000fb8:	00368593          	add	a1,a3,3
 7000fbc:	01068123          	sb	a6,2(a3)
 7000fc0:	ffd60613          	add	a2,a2,-3
 7000fc4:	01070693          	add	a3,a4,16
 7000fc8:	01000713          	li	a4,16
 7000fcc:	ff46a803          	lw	a6,-12(a3)
 7000fd0:	0187d793          	srl	a5,a5,0x18
 7000fd4:	00881893          	sll	a7,a6,0x8
 7000fd8:	ff86a283          	lw	t0,-8(a3)
 7000fdc:	00f8e7b3          	or	a5,a7,a5
 7000fe0:	00f5a023          	sw	a5,0(a1)
 7000fe4:	01885793          	srl	a5,a6,0x18
 7000fe8:	00829813          	sll	a6,t0,0x8
 7000fec:	ffc6a883          	lw	a7,-4(a3)
 7000ff0:	00f867b3          	or	a5,a6,a5
 7000ff4:	00f5a223          	sw	a5,4(a1)
 7000ff8:	0182d813          	srl	a6,t0,0x18
 7000ffc:	00889293          	sll	t0,a7,0x8
 7001000:	0006a783          	lw	a5,0(a3)
 7001004:	0102e833          	or	a6,t0,a6
 7001008:	0105a423          	sw	a6,8(a1)
 700100c:	0188d813          	srl	a6,a7,0x18
 7001010:	00879893          	sll	a7,a5,0x8
 7001014:	0108e833          	or	a6,a7,a6
 7001018:	0105a623          	sw	a6,12(a1)
 700101c:	01058593          	add	a1,a1,16
 7001020:	ff060613          	add	a2,a2,-16
 7001024:	01068693          	add	a3,a3,16
 7001028:	fac762e3          	bltu	a4,a2,7000fcc <memcpy+0xa0>
 700102c:	ff368713          	add	a4,a3,-13
 7001030:	1900006f          	j	70011c0 <memcpy+0x294>
 7001034:	00050693          	mv	a3,a0
 7001038:	00058713          	mv	a4,a1
 700103c:	0036f593          	and	a1,a3,3
 7001040:	f40592e3          	bnez	a1,7000f84 <memcpy+0x58>
 7001044:	01000593          	li	a1,16
 7001048:	02b66c63          	bltu	a2,a1,7001080 <memcpy+0x154>
 700104c:	00f00593          	li	a1,15
 7001050:	00072783          	lw	a5,0(a4)
 7001054:	00472803          	lw	a6,4(a4)
 7001058:	00872883          	lw	a7,8(a4)
 700105c:	00c72283          	lw	t0,12(a4)
 7001060:	00f6a023          	sw	a5,0(a3)
 7001064:	0106a223          	sw	a6,4(a3)
 7001068:	0116a423          	sw	a7,8(a3)
 700106c:	0056a623          	sw	t0,12(a3)
 7001070:	01070713          	add	a4,a4,16
 7001074:	ff060613          	add	a2,a2,-16
 7001078:	01068693          	add	a3,a3,16
 700107c:	fcc5eae3          	bltu	a1,a2,7001050 <memcpy+0x124>
 7001080:	00867593          	and	a1,a2,8
 7001084:	00058e63          	beqz	a1,70010a0 <memcpy+0x174>
 7001088:	00072583          	lw	a1,0(a4)
 700108c:	00472783          	lw	a5,4(a4)
 7001090:	00b6a023          	sw	a1,0(a3)
 7001094:	00f6a223          	sw	a5,4(a3)
 7001098:	00868693          	add	a3,a3,8
 700109c:	00870713          	add	a4,a4,8
 70010a0:	00467593          	and	a1,a2,4
 70010a4:	16058263          	beqz	a1,7001208 <memcpy+0x2dc>
 70010a8:	00072583          	lw	a1,0(a4)
 70010ac:	00b6a023          	sw	a1,0(a3)
 70010b0:	00468693          	add	a3,a3,4
 70010b4:	00470713          	add	a4,a4,4
 70010b8:	1500006f          	j	7001208 <memcpy+0x2dc>
 70010bc:	00072783          	lw	a5,0(a4)
 70010c0:	00168593          	add	a1,a3,1
 70010c4:	00f68023          	sb	a5,0(a3)
 70010c8:	fff60613          	add	a2,a2,-1
 70010cc:	01070693          	add	a3,a4,16
 70010d0:	01200713          	li	a4,18
 70010d4:	ff46a803          	lw	a6,-12(a3)
 70010d8:	0087d793          	srl	a5,a5,0x8
 70010dc:	01881893          	sll	a7,a6,0x18
 70010e0:	ff86a283          	lw	t0,-8(a3)
 70010e4:	00f8e7b3          	or	a5,a7,a5
 70010e8:	00f5a023          	sw	a5,0(a1)
 70010ec:	00885793          	srl	a5,a6,0x8
 70010f0:	01829813          	sll	a6,t0,0x18
 70010f4:	ffc6a883          	lw	a7,-4(a3)
 70010f8:	00f867b3          	or	a5,a6,a5
 70010fc:	00f5a223          	sw	a5,4(a1)
 7001100:	0082d813          	srl	a6,t0,0x8
 7001104:	01889293          	sll	t0,a7,0x18
 7001108:	0006a783          	lw	a5,0(a3)
 700110c:	0102e833          	or	a6,t0,a6
 7001110:	0105a423          	sw	a6,8(a1)
 7001114:	0088d813          	srl	a6,a7,0x8
 7001118:	01879893          	sll	a7,a5,0x18
 700111c:	0108e833          	or	a6,a7,a6
 7001120:	0105a623          	sw	a6,12(a1)
 7001124:	01058593          	add	a1,a1,16
 7001128:	ff060613          	add	a2,a2,-16
 700112c:	01068693          	add	a3,a3,16
 7001130:	fac762e3          	bltu	a4,a2,70010d4 <memcpy+0x1a8>
 7001134:	ff168713          	add	a4,a3,-15
 7001138:	0880006f          	j	70011c0 <memcpy+0x294>
 700113c:	00072783          	lw	a5,0(a4)
 7001140:	00f68023          	sb	a5,0(a3)
 7001144:	0087d813          	srl	a6,a5,0x8
 7001148:	00268593          	add	a1,a3,2
 700114c:	010680a3          	sb	a6,1(a3)
 7001150:	ffe60613          	add	a2,a2,-2
 7001154:	01070693          	add	a3,a4,16
 7001158:	01100713          	li	a4,17
 700115c:	ff46a803          	lw	a6,-12(a3)
 7001160:	0107d793          	srl	a5,a5,0x10
 7001164:	01081893          	sll	a7,a6,0x10
 7001168:	ff86a283          	lw	t0,-8(a3)
 700116c:	00f8e7b3          	or	a5,a7,a5
 7001170:	00f5a023          	sw	a5,0(a1)
 7001174:	01085793          	srl	a5,a6,0x10
 7001178:	01029813          	sll	a6,t0,0x10
 700117c:	ffc6a883          	lw	a7,-4(a3)
 7001180:	00f867b3          	or	a5,a6,a5
 7001184:	00f5a223          	sw	a5,4(a1)
 7001188:	0102d813          	srl	a6,t0,0x10
 700118c:	01089293          	sll	t0,a7,0x10
 7001190:	0006a783          	lw	a5,0(a3)
 7001194:	0102e833          	or	a6,t0,a6
 7001198:	0105a423          	sw	a6,8(a1)
 700119c:	0108d813          	srl	a6,a7,0x10
 70011a0:	01079893          	sll	a7,a5,0x10
 70011a4:	0108e833          	or	a6,a7,a6
 70011a8:	0105a623          	sw	a6,12(a1)
 70011ac:	01058593          	add	a1,a1,16
 70011b0:	ff060613          	add	a2,a2,-16
 70011b4:	01068693          	add	a3,a3,16
 70011b8:	fac762e3          	bltu	a4,a2,700115c <memcpy+0x230>
 70011bc:	ff268713          	add	a4,a3,-14
 70011c0:	00058693          	mv	a3,a1
 70011c4:	01067593          	and	a1,a2,16
 70011c8:	08059263          	bnez	a1,700124c <memcpy+0x320>
 70011cc:	00867593          	and	a1,a2,8
 70011d0:	10059863          	bnez	a1,70012e0 <memcpy+0x3b4>
 70011d4:	00467593          	and	a1,a2,4
 70011d8:	02058863          	beqz	a1,7001208 <memcpy+0x2dc>
 70011dc:	00070583          	lb	a1,0(a4)
 70011e0:	00170783          	lb	a5,1(a4)
 70011e4:	00270803          	lb	a6,2(a4)
 70011e8:	00b68023          	sb	a1,0(a3)
 70011ec:	00f680a3          	sb	a5,1(a3)
 70011f0:	00370583          	lb	a1,3(a4)
 70011f4:	01068123          	sb	a6,2(a3)
 70011f8:	00470713          	add	a4,a4,4
 70011fc:	00468793          	add	a5,a3,4
 7001200:	00b681a3          	sb	a1,3(a3)
 7001204:	00078693          	mv	a3,a5
 7001208:	00267593          	and	a1,a2,2
 700120c:	00059863          	bnez	a1,700121c <memcpy+0x2f0>
 7001210:	00167593          	and	a1,a2,1
 7001214:	02059663          	bnez	a1,7001240 <memcpy+0x314>
 7001218:	00008067          	ret
 700121c:	00070583          	lb	a1,0(a4)
 7001220:	00170783          	lb	a5,1(a4)
 7001224:	00b68023          	sb	a1,0(a3)
 7001228:	00270713          	add	a4,a4,2
 700122c:	00268593          	add	a1,a3,2
 7001230:	00f680a3          	sb	a5,1(a3)
 7001234:	00058693          	mv	a3,a1
 7001238:	00167593          	and	a1,a2,1
 700123c:	fc058ee3          	beqz	a1,7001218 <memcpy+0x2ec>
 7001240:	00070583          	lb	a1,0(a4)
 7001244:	00b68023          	sb	a1,0(a3)
 7001248:	00008067          	ret
 700124c:	00070583          	lb	a1,0(a4)
 7001250:	00170783          	lb	a5,1(a4)
 7001254:	00270803          	lb	a6,2(a4)
 7001258:	00b68023          	sb	a1,0(a3)
 700125c:	00f680a3          	sb	a5,1(a3)
 7001260:	00370583          	lb	a1,3(a4)
 7001264:	01068123          	sb	a6,2(a3)
 7001268:	00470783          	lb	a5,4(a4)
 700126c:	00570803          	lb	a6,5(a4)
 7001270:	00b681a3          	sb	a1,3(a3)
 7001274:	00670583          	lb	a1,6(a4)
 7001278:	00f68223          	sb	a5,4(a3)
 700127c:	010682a3          	sb	a6,5(a3)
 7001280:	00770783          	lb	a5,7(a4)
 7001284:	00b68323          	sb	a1,6(a3)
 7001288:	00870583          	lb	a1,8(a4)
 700128c:	00970803          	lb	a6,9(a4)
 7001290:	00f683a3          	sb	a5,7(a3)
 7001294:	00a70783          	lb	a5,10(a4)
 7001298:	00b68423          	sb	a1,8(a3)
 700129c:	010684a3          	sb	a6,9(a3)
 70012a0:	00b70583          	lb	a1,11(a4)
 70012a4:	00f68523          	sb	a5,10(a3)
 70012a8:	00c70783          	lb	a5,12(a4)
 70012ac:	00d70803          	lb	a6,13(a4)
 70012b0:	00b685a3          	sb	a1,11(a3)
 70012b4:	00e70583          	lb	a1,14(a4)
 70012b8:	00f68623          	sb	a5,12(a3)
 70012bc:	010686a3          	sb	a6,13(a3)
 70012c0:	00f70783          	lb	a5,15(a4)
 70012c4:	00b68723          	sb	a1,14(a3)
 70012c8:	01070713          	add	a4,a4,16
 70012cc:	01068593          	add	a1,a3,16
 70012d0:	00f687a3          	sb	a5,15(a3)
 70012d4:	00058693          	mv	a3,a1
 70012d8:	00867593          	and	a1,a2,8
 70012dc:	ee058ce3          	beqz	a1,70011d4 <memcpy+0x2a8>
 70012e0:	00070583          	lb	a1,0(a4)
 70012e4:	00170783          	lb	a5,1(a4)
 70012e8:	00270803          	lb	a6,2(a4)
 70012ec:	00b68023          	sb	a1,0(a3)
 70012f0:	00f680a3          	sb	a5,1(a3)
 70012f4:	00370583          	lb	a1,3(a4)
 70012f8:	01068123          	sb	a6,2(a3)
 70012fc:	00470783          	lb	a5,4(a4)
 7001300:	00570803          	lb	a6,5(a4)
 7001304:	00b681a3          	sb	a1,3(a3)
 7001308:	00670583          	lb	a1,6(a4)
 700130c:	00f68223          	sb	a5,4(a3)
 7001310:	010682a3          	sb	a6,5(a3)
 7001314:	00770783          	lb	a5,7(a4)
 7001318:	00b68323          	sb	a1,6(a3)
 700131c:	00870713          	add	a4,a4,8
 7001320:	00868593          	add	a1,a3,8
 7001324:	00f683a3          	sb	a5,7(a3)
 7001328:	00058693          	mv	a3,a1
 700132c:	00467593          	and	a1,a2,4
 7001330:	ea0596e3          	bnez	a1,70011dc <memcpy+0x2b0>
 7001334:	ed5ff06f          	j	7001208 <memcpy+0x2dc>

07001338 <_ZN10risc0_zkvm5guest3env8finalize17h4683497f8b82da0cE>:
 7001338:	ef010113          	add	sp,sp,-272
 700133c:	10112623          	sw	ra,268(sp)
 7001340:	10812423          	sw	s0,264(sp)
 7001344:	10912223          	sw	s1,260(sp)
 7001348:	11212023          	sw	s2,256(sp)
 700134c:	0f312e23          	sw	s3,252(sp)
 7001350:	0f412c23          	sw	s4,248(sp)
 7001354:	0f512a23          	sw	s5,244(sp)
 7001358:	00080537          	lui	a0,0x80
 700135c:	02052e23          	sw	zero,60(a0) # 8003c <_ZN10risc0_zkvm5guest3env6HASHER17h2b2409cc96672782E>
 7001360:	03c50513          	add	a0,a0,60
 7001364:	00450593          	add	a1,a0,4
 7001368:	00010513          	mv	a0,sp
 700136c:	04c00613          	li	a2,76
 7001370:	00000097          	auipc	ra,0x0
 7001374:	bbc080e7          	jalr	-1092(ra) # 7000f2c <memcpy>
 7001378:	00810493          	add	s1,sp,8
 700137c:	06012623          	sw	zero,108(sp)
 7001380:	06012423          	sw	zero,104(sp)
 7001384:	06012223          	sw	zero,100(sp)
 7001388:	06012023          	sw	zero,96(sp)
 700138c:	04012e23          	sw	zero,92(sp)
 7001390:	00412503          	lw	a0,4(sp)
 7001394:	04814403          	lbu	s0,72(sp)
 7001398:	04012c23          	sw	zero,88(sp)
 700139c:	04012a23          	sw	zero,84(sp)
 70013a0:	00951513          	sll	a0,a0,0x9
 70013a4:	00341593          	sll	a1,s0,0x3
 70013a8:	00b56533          	or	a0,a0,a1
 70013ac:	00855593          	srl	a1,a0,0x8
 70013b0:	00010637          	lui	a2,0x10
 70013b4:	f0060613          	add	a2,a2,-256 # ff00 <__bss_size+0xfe78>
 70013b8:	00c5f5b3          	and	a1,a1,a2
 70013bc:	01855613          	srl	a2,a0,0x18
 70013c0:	00c5e933          	or	s2,a1,a2
 70013c4:	00851513          	sll	a0,a0,0x8
 70013c8:	00ff05b7          	lui	a1,0xff0
 70013cc:	00b57533          	and	a0,a0,a1
 70013d0:	01b41593          	sll	a1,s0,0x1b
 70013d4:	00a5e9b3          	or	s3,a1,a0
 70013d8:	00848533          	add	a0,s1,s0
 70013dc:	08000593          	li	a1,128
 70013e0:	00b50023          	sb	a1,0(a0)
 70013e4:	03f00593          	li	a1,63
 70013e8:	04012823          	sw	zero,80(sp)
 70013ec:	00b40c63          	beq	s0,a1,7001404 <_ZN10risc0_zkvm5guest3env8finalize17h4683497f8b82da0cE+0xcc>
 70013f0:	03f44613          	xor	a2,s0,63
 70013f4:	00150513          	add	a0,a0,1
 70013f8:	00000593          	li	a1,0
 70013fc:	00000097          	auipc	ra,0x0
 7001400:	a38080e7          	jalr	-1480(ra) # 7000e34 <memset>
 7001404:	03847513          	and	a0,s0,56
 7001408:	03800593          	li	a1,56
 700140c:	0129eab3          	or	s5,s3,s2
 7001410:	12b51863          	bne	a0,a1,7001540 <_ZN10risc0_zkvm5guest3env8finalize17h4683497f8b82da0cE+0x208>
 7001414:	00012503          	lw	a0,0(sp)
 7001418:	070075b7          	lui	a1,0x7007
 700141c:	21058413          	add	s0,a1,528 # 7007210 <_ZN9risc0_zkp4core4hash3sha11SHA256_INIT17h62e1cd879e97d403E>
 7001420:	00040913          	mv	s2,s0
 7001424:	00050463          	beqz	a0,700142c <_ZN10risc0_zkvm5guest3env8finalize17h4683497f8b82da0cE+0xf4>
 7001428:	00050913          	mv	s2,a0
 700142c:	00048513          	mv	a0,s1
 7001430:	00000097          	auipc	ra,0x0
 7001434:	4b8080e7          	jalr	1208(ra) # 70018e8 <_ZN9risc0_zkp4core4hash3sha5Block14as_half_blocks17heb79b3377edea46dE>
 7001438:	00050993          	mv	s3,a0
 700143c:	00048513          	mv	a0,s1
 7001440:	00000097          	auipc	ra,0x0
 7001444:	4a8080e7          	jalr	1192(ra) # 70018e8 <_ZN9risc0_zkp4core4hash3sha5Block14as_half_blocks17heb79b3377edea46dE>
 7001448:	00058a13          	mv	s4,a1
 700144c:	04000513          	li	a0,64
 7001450:	00400593          	li	a1,4
 7001454:	fffff097          	auipc	ra,0xfffff
 7001458:	1d0080e7          	jalr	464(ra) # 7000624 <__rust_alloc>
 700145c:	00050493          	mv	s1,a0
 7001460:	00098513          	mv	a0,s3
 7001464:	00000097          	auipc	ra,0x0
 7001468:	48c080e7          	jalr	1164(ra) # 70018f0 <_ZN104_$LT$risc0_zkp..core..digest..Digest$u20$as$u20$core..convert..AsRef$LT$$u5b$u32$u3b$$u20$_$u5d$$GT$$GT$6as_ref17hc5aa0985ccf04e9bE>
 700146c:	00050993          	mv	s3,a0
 7001470:	000a0513          	mv	a0,s4
 7001474:	00000097          	auipc	ra,0x0
 7001478:	47c080e7          	jalr	1148(ra) # 70018f0 <_ZN104_$LT$risc0_zkp..core..digest..Digest$u20$as$u20$core..convert..AsRef$LT$$u5b$u32$u3b$$u20$_$u5d$$GT$$GT$6as_ref17hc5aa0985ccf04e9bE>
 700147c:	00050693          	mv	a3,a0
 7001480:	00300293          	li	t0,3
 7001484:	00100713          	li	a4,1
 7001488:	00048513          	mv	a0,s1
 700148c:	00090593          	mv	a1,s2
 7001490:	00098613          	mv	a2,s3
 7001494:	00000073          	ecall
 7001498:	00912023          	sw	s1,0(sp)
 700149c:	07010513          	add	a0,sp,112
 70014a0:	03800613          	li	a2,56
 70014a4:	00000593          	li	a1,0
 70014a8:	00000097          	auipc	ra,0x0
 70014ac:	98c080e7          	jalr	-1652(ra) # 7000e34 <memset>
 70014b0:	0b512623          	sw	s5,172(sp)
 70014b4:	0a012423          	sw	zero,168(sp)
 70014b8:	00048463          	beqz	s1,70014c0 <_ZN10risc0_zkvm5guest3env8finalize17h4683497f8b82da0cE+0x188>
 70014bc:	00048413          	mv	s0,s1
 70014c0:	12001863          	bnez	zero,70015f0 <_ZN10risc0_zkvm5guest3env8finalize17h4683497f8b82da0cE+0x2b8>
 70014c4:	07010513          	add	a0,sp,112
 70014c8:	00000097          	auipc	ra,0x0
 70014cc:	420080e7          	jalr	1056(ra) # 70018e8 <_ZN9risc0_zkp4core4hash3sha5Block14as_half_blocks17heb79b3377edea46dE>
 70014d0:	00050913          	mv	s2,a0
 70014d4:	07010513          	add	a0,sp,112
 70014d8:	00000097          	auipc	ra,0x0
 70014dc:	410080e7          	jalr	1040(ra) # 70018e8 <_ZN9risc0_zkp4core4hash3sha5Block14as_half_blocks17heb79b3377edea46dE>
 70014e0:	00058993          	mv	s3,a1
 70014e4:	04000513          	li	a0,64
 70014e8:	00400593          	li	a1,4
 70014ec:	fffff097          	auipc	ra,0xfffff
 70014f0:	138080e7          	jalr	312(ra) # 7000624 <__rust_alloc>
 70014f4:	00050493          	mv	s1,a0
 70014f8:	00090513          	mv	a0,s2
 70014fc:	00000097          	auipc	ra,0x0
 7001500:	3f4080e7          	jalr	1012(ra) # 70018f0 <_ZN104_$LT$risc0_zkp..core..digest..Digest$u20$as$u20$core..convert..AsRef$LT$$u5b$u32$u3b$$u20$_$u5d$$GT$$GT$6as_ref17hc5aa0985ccf04e9bE>
 7001504:	00050913          	mv	s2,a0
 7001508:	00098513          	mv	a0,s3
 700150c:	00000097          	auipc	ra,0x0
 7001510:	3e4080e7          	jalr	996(ra) # 70018f0 <_ZN104_$LT$risc0_zkp..core..digest..Digest$u20$as$u20$core..convert..AsRef$LT$$u5b$u32$u3b$$u20$_$u5d$$GT$$GT$6as_ref17hc5aa0985ccf04e9bE>
 7001514:	00050693          	mv	a3,a0
 7001518:	00300293          	li	t0,3
 700151c:	00100713          	li	a4,1
 7001520:	00048513          	mv	a0,s1
 7001524:	00040593          	mv	a1,s0
 7001528:	00090613          	mv	a2,s2
 700152c:	00000073          	ecall
 7001530:	00912023          	sw	s1,0(sp)
 7001534:	04010423          	sb	zero,72(sp)
 7001538:	08048c63          	beqz	s1,70015d0 <_ZN10risc0_zkvm5guest3env8finalize17h4683497f8b82da0cE+0x298>
 700153c:	1400006f          	j	700167c <_ZN10risc0_zkvm5guest3env8finalize17h4683497f8b82da0cE+0x344>
 7001540:	04012023          	sw	zero,64(sp)
 7001544:	05512223          	sw	s5,68(sp)
 7001548:	00012403          	lw	s0,0(sp)
 700154c:	00041663          	bnez	s0,7001558 <_ZN10risc0_zkvm5guest3env8finalize17h4683497f8b82da0cE+0x220>
 7001550:	07007537          	lui	a0,0x7007
 7001554:	21050413          	add	s0,a0,528 # 7007210 <_ZN9risc0_zkp4core4hash3sha11SHA256_INIT17h62e1cd879e97d403E>
 7001558:	00048513          	mv	a0,s1
 700155c:	00000097          	auipc	ra,0x0
 7001560:	38c080e7          	jalr	908(ra) # 70018e8 <_ZN9risc0_zkp4core4hash3sha5Block14as_half_blocks17heb79b3377edea46dE>
 7001564:	00050913          	mv	s2,a0
 7001568:	00048513          	mv	a0,s1
 700156c:	00000097          	auipc	ra,0x0
 7001570:	37c080e7          	jalr	892(ra) # 70018e8 <_ZN9risc0_zkp4core4hash3sha5Block14as_half_blocks17heb79b3377edea46dE>
 7001574:	00058993          	mv	s3,a1
 7001578:	04000513          	li	a0,64
 700157c:	00400593          	li	a1,4
 7001580:	fffff097          	auipc	ra,0xfffff
 7001584:	0a4080e7          	jalr	164(ra) # 7000624 <__rust_alloc>
 7001588:	00050493          	mv	s1,a0
 700158c:	00090513          	mv	a0,s2
 7001590:	00000097          	auipc	ra,0x0
 7001594:	360080e7          	jalr	864(ra) # 70018f0 <_ZN104_$LT$risc0_zkp..core..digest..Digest$u20$as$u20$core..convert..AsRef$LT$$u5b$u32$u3b$$u20$_$u5d$$GT$$GT$6as_ref17hc5aa0985ccf04e9bE>
 7001598:	00050913          	mv	s2,a0
 700159c:	00098513          	mv	a0,s3
 70015a0:	00000097          	auipc	ra,0x0
 70015a4:	350080e7          	jalr	848(ra) # 70018f0 <_ZN104_$LT$risc0_zkp..core..digest..Digest$u20$as$u20$core..convert..AsRef$LT$$u5b$u32$u3b$$u20$_$u5d$$GT$$GT$6as_ref17hc5aa0985ccf04e9bE>
 70015a8:	00050693          	mv	a3,a0
 70015ac:	00300293          	li	t0,3
 70015b0:	00100713          	li	a4,1
 70015b4:	00048513          	mv	a0,s1
 70015b8:	00040593          	mv	a1,s0
 70015bc:	00090613          	mv	a2,s2
 70015c0:	00000073          	ecall
 70015c4:	00912023          	sw	s1,0(sp)
 70015c8:	04010423          	sb	zero,72(sp)
 70015cc:	0a049863          	bnez	s1,700167c <_ZN10risc0_zkvm5guest3env8finalize17h4683497f8b82da0cE+0x344>
 70015d0:	07007537          	lui	a0,0x7007
 70015d4:	0f050513          	add	a0,a0,240 # 70070f0 <.Lanon.2e428254a4f422f96131b722f5510c98.3>
 70015d8:	070075b7          	lui	a1,0x7007
 70015dc:	11c58613          	add	a2,a1,284 # 700711c <.Lanon.2e428254a4f422f96131b722f5510c98.4>
 70015e0:	02b00593          	li	a1,43
 70015e4:	00005097          	auipc	ra,0x5
 70015e8:	3c0080e7          	jalr	960(ra) # 70069a4 <_ZN4core9panicking5panic17h5d0c0b97b225c667E>
 70015ec:	c0001073          	unimp
 70015f0:	0b010513          	add	a0,sp,176
 70015f4:	07010593          	add	a1,sp,112
 70015f8:	04000613          	li	a2,64
 70015fc:	00000097          	auipc	ra,0x0
 7001600:	930080e7          	jalr	-1744(ra) # 7000f2c <memcpy>
 7001604:	0b010513          	add	a0,sp,176
 7001608:	00000097          	auipc	ra,0x0
 700160c:	2e0080e7          	jalr	736(ra) # 70018e8 <_ZN9risc0_zkp4core4hash3sha5Block14as_half_blocks17heb79b3377edea46dE>
 7001610:	00050913          	mv	s2,a0
 7001614:	0b010513          	add	a0,sp,176
 7001618:	00000097          	auipc	ra,0x0
 700161c:	2d0080e7          	jalr	720(ra) # 70018e8 <_ZN9risc0_zkp4core4hash3sha5Block14as_half_blocks17heb79b3377edea46dE>
 7001620:	00058993          	mv	s3,a1
 7001624:	04000513          	li	a0,64
 7001628:	00400593          	li	a1,4
 700162c:	fffff097          	auipc	ra,0xfffff
 7001630:	ff8080e7          	jalr	-8(ra) # 7000624 <__rust_alloc>
 7001634:	00050493          	mv	s1,a0
 7001638:	00090513          	mv	a0,s2
 700163c:	00000097          	auipc	ra,0x0
 7001640:	2b4080e7          	jalr	692(ra) # 70018f0 <_ZN104_$LT$risc0_zkp..core..digest..Digest$u20$as$u20$core..convert..AsRef$LT$$u5b$u32$u3b$$u20$_$u5d$$GT$$GT$6as_ref17hc5aa0985ccf04e9bE>
 7001644:	00050913          	mv	s2,a0
 7001648:	00098513          	mv	a0,s3
 700164c:	00000097          	auipc	ra,0x0
 7001650:	2a4080e7          	jalr	676(ra) # 70018f0 <_ZN104_$LT$risc0_zkp..core..digest..Digest$u20$as$u20$core..convert..AsRef$LT$$u5b$u32$u3b$$u20$_$u5d$$GT$$GT$6as_ref17hc5aa0985ccf04e9bE>
 7001654:	00050693          	mv	a3,a0
 7001658:	00300293          	li	t0,3
 700165c:	00100713          	li	a4,1
 7001660:	00048513          	mv	a0,s1
 7001664:	00040593          	mv	a1,s0
 7001668:	00090613          	mv	a2,s2
 700166c:	00000073          	ecall
 7001670:	00912023          	sw	s1,0(sp)
 7001674:	04010423          	sb	zero,72(sp)
 7001678:	f4048ce3          	beqz	s1,70015d0 <_ZN10risc0_zkvm5guest3env8finalize17h4683497f8b82da0cE+0x298>
 700167c:	00048513          	mv	a0,s1
 7001680:	00000097          	auipc	ra,0x0
 7001684:	274080e7          	jalr	628(ra) # 70018f4 <_ZN92_$LT$risc0_zkp..core..digest..Digest$u20$as$u20$core..convert..AsRef$LT$$u5b$u8$u5d$$GT$$GT$6as_ref17h9b0a1bca79cda51dE>
 7001688:	00050613          	mv	a2,a0
 700168c:	00058693          	mv	a3,a1
 7001690:	07007537          	lui	a0,0x7007
 7001694:	0e050713          	add	a4,a0,224 # 70070e0 <.Lanon.2e428254a4f422f96131b722f5510c98.2>
 7001698:	05010513          	add	a0,sp,80
 700169c:	02000593          	li	a1,32
 70016a0:	fffff097          	auipc	ra,0xfffff
 70016a4:	764080e7          	jalr	1892(ra) # 7000e04 <_ZN4core5slice29_$LT$impl$u20$$u5b$T$u5d$$GT$15copy_from_slice17h9921693fe10a61f1E>
 70016a8:	05012583          	lw	a1,80(sp)
 70016ac:	05412603          	lw	a2,84(sp)
 70016b0:	05812683          	lw	a3,88(sp)
 70016b4:	05c12703          	lw	a4,92(sp)
 70016b8:	06012783          	lw	a5,96(sp)
 70016bc:	06412803          	lw	a6,100(sp)
 70016c0:	06812883          	lw	a7,104(sp)
 70016c4:	06c12303          	lw	t1,108(sp)
 70016c8:	00100293          	li	t0,1
 70016cc:	00000513          	li	a0,0
 70016d0:	00000073          	ecall
 70016d4:	00100293          	li	t0,1
 70016d8:	00100513          	li	a0,1
 70016dc:	00060593          	mv	a1,a2
 70016e0:	00000073          	ecall
 70016e4:	00100293          	li	t0,1
 70016e8:	00200513          	li	a0,2
 70016ec:	00068593          	mv	a1,a3
 70016f0:	00000073          	ecall
 70016f4:	00100293          	li	t0,1
 70016f8:	00300513          	li	a0,3
 70016fc:	00070593          	mv	a1,a4
 7001700:	00000073          	ecall
 7001704:	00100293          	li	t0,1
 7001708:	00400513          	li	a0,4
 700170c:	00078593          	mv	a1,a5
 7001710:	00000073          	ecall
 7001714:	00100293          	li	t0,1
 7001718:	00500513          	li	a0,5
 700171c:	00080593          	mv	a1,a6
 7001720:	00000073          	ecall
 7001724:	00100293          	li	t0,1
 7001728:	00600513          	li	a0,6
 700172c:	00088593          	mv	a1,a7
 7001730:	00000073          	ecall
 7001734:	00100293          	li	t0,1
 7001738:	00700513          	li	a0,7
 700173c:	00030593          	mv	a1,t1
 7001740:	00000073          	ecall
 7001744:	00000293          	li	t0,0
 7001748:	00000513          	li	a0,0
 700174c:	00000073          	ecall
 7001750:	07007537          	lui	a0,0x7007
 7001754:	1c650513          	add	a0,a0,454 # 70071c6 <.Lanon.2e428254a4f422f96131b722f5510c98.12>
 7001758:	070075b7          	lui	a1,0x7007
 700175c:	1f058613          	add	a2,a1,496 # 70071f0 <.Lanon.2e428254a4f422f96131b722f5510c98.13>
 7001760:	02800593          	li	a1,40
 7001764:	00005097          	auipc	ra,0x5
 7001768:	240080e7          	jalr	576(ra) # 70069a4 <_ZN4core9panicking5panic17h5d0c0b97b225c667E>
 700176c:	c0001073          	unimp

07001770 <_ZN10risc0_zkvm5guest3env7journal17he59338ac9e48008fE>:
 7001770:	00300513          	li	a0,3
 7001774:	00008067          	ret

07001778 <_ZN10risc0_zkvm5guest3env5stdin17hb0b3d6bdad52895bE>:
 7001778:	00000513          	li	a0,0
 700177c:	00008067          	ret

07001780 <_ZN94_$LT$risc0_zkvm..guest..env..FdReader$u20$as$u20$risc0_zkvm..serde..deserializer..WordRead$GT$10read_words17hc6f19d077743efe4E>:
 7001780:	ff010113          	add	sp,sp,-16
 7001784:	00112623          	sw	ra,12(sp)
 7001788:	00812423          	sw	s0,8(sp)
 700178c:	00052503          	lw	a0,0(a0)
 7001790:	00060413          	mv	s0,a2
 7001794:	00000097          	auipc	ra,0x0
 7001798:	238080e7          	jalr	568(ra) # 70019cc <_ZN19risc0_zkvm_platform7syscall14sys_read_words17h6d319333f02563a4E>
 700179c:	00050593          	mv	a1,a0
 70017a0:	00241613          	sll	a2,s0,0x2
 70017a4:	00700513          	li	a0,7
 70017a8:	00c58463          	beq	a1,a2,70017b0 <_ZN94_$LT$risc0_zkvm..guest..env..FdReader$u20$as$u20$risc0_zkvm..serde..deserializer..WordRead$GT$10read_words17hc6f19d077743efe4E+0x30>
 70017ac:	00400513          	li	a0,4
 70017b0:	00c12083          	lw	ra,12(sp)
 70017b4:	00812403          	lw	s0,8(sp)
 70017b8:	01010113          	add	sp,sp,16
 70017bc:	00008067          	ret

070017c0 <_ZN94_$LT$risc0_zkvm..guest..env..FdReader$u20$as$u20$risc0_zkvm..serde..deserializer..WordRead$GT$17read_padded_bytes17h9f7bfde97f8562a1E>:
 70017c0:	fe010113          	add	sp,sp,-32
 70017c4:	00112e23          	sw	ra,28(sp)
 70017c8:	00812c23          	sw	s0,24(sp)
 70017cc:	00912a23          	sw	s1,20(sp)
 70017d0:	01212823          	sw	s2,16(sp)
 70017d4:	01312623          	sw	s3,12(sp)
 70017d8:	01412423          	sw	s4,8(sp)
 70017dc:	01512223          	sw	s5,4(sp)
 70017e0:	00060493          	mv	s1,a2
 70017e4:	00050413          	mv	s0,a0
 70017e8:	04060663          	beqz	a2,7001834 <_ZN94_$LT$risc0_zkvm..guest..env..FdReader$u20$as$u20$risc0_zkvm..serde..deserializer..WordRead$GT$17read_padded_bytes17h9f7bfde97f8562a1E+0x74>
 70017ec:	00058913          	mv	s2,a1
 70017f0:	00042983          	lw	s3,0(s0)
 70017f4:	00000a93          	li	s5,0
 70017f8:	00048a13          	mv	s4,s1
 70017fc:	00098513          	mv	a0,s3
 7001800:	00090593          	mv	a1,s2
 7001804:	000a0613          	mv	a2,s4
 7001808:	00000097          	auipc	ra,0x0
 700180c:	0f4080e7          	jalr	244(ra) # 70018fc <sys_read>
 7001810:	00050c63          	beqz	a0,7001828 <_ZN94_$LT$risc0_zkvm..guest..env..FdReader$u20$as$u20$risc0_zkvm..serde..deserializer..WordRead$GT$17read_padded_bytes17h9f7bfde97f8562a1E+0x68>
 7001814:	0aaa6a63          	bltu	s4,a0,70018c8 <_ZN94_$LT$risc0_zkvm..guest..env..FdReader$u20$as$u20$risc0_zkvm..serde..deserializer..WordRead$GT$17read_padded_bytes17h9f7bfde97f8562a1E+0x108>
 7001818:	01550ab3          	add	s5,a0,s5
 700181c:	40aa0a33          	sub	s4,s4,a0
 7001820:	00a90933          	add	s2,s2,a0
 7001824:	fc0a1ce3          	bnez	s4,70017fc <_ZN94_$LT$risc0_zkvm..guest..env..FdReader$u20$as$u20$risc0_zkvm..serde..deserializer..WordRead$GT$17read_padded_bytes17h9f7bfde97f8562a1E+0x3c>
 7001828:	00400513          	li	a0,4
 700182c:	009a8a63          	beq	s5,s1,7001840 <_ZN94_$LT$risc0_zkvm..guest..env..FdReader$u20$as$u20$risc0_zkvm..serde..deserializer..WordRead$GT$17read_padded_bytes17h9f7bfde97f8562a1E+0x80>
 7001830:	0740006f          	j	70018a4 <_ZN94_$LT$risc0_zkvm..guest..env..FdReader$u20$as$u20$risc0_zkvm..serde..deserializer..WordRead$GT$17read_padded_bytes17h9f7bfde97f8562a1E+0xe4>
 7001834:	00000a93          	li	s5,0
 7001838:	00400513          	li	a0,4
 700183c:	069a9463          	bne	s5,s1,70018a4 <_ZN94_$LT$risc0_zkvm..guest..env..FdReader$u20$as$u20$risc0_zkvm..serde..deserializer..WordRead$GT$17read_padded_bytes17h9f7bfde97f8562a1E+0xe4>
 7001840:	0034f513          	and	a0,s1,3
 7001844:	04050e63          	beqz	a0,70018a0 <_ZN94_$LT$risc0_zkvm..guest..env..FdReader$u20$as$u20$risc0_zkvm..serde..deserializer..WordRead$GT$17read_padded_bytes17h9f7bfde97f8562a1E+0xe0>
 7001848:	00000993          	li	s3,0
 700184c:	00400593          	li	a1,4
 7001850:	00042403          	lw	s0,0(s0)
 7001854:	40a58a33          	sub	s4,a1,a0
 7001858:	00012023          	sw	zero,0(sp)
 700185c:	00010493          	mv	s1,sp
 7001860:	000a0913          	mv	s2,s4
 7001864:	00040513          	mv	a0,s0
 7001868:	00048593          	mv	a1,s1
 700186c:	00090613          	mv	a2,s2
 7001870:	00000097          	auipc	ra,0x0
 7001874:	08c080e7          	jalr	140(ra) # 70018fc <sys_read>
 7001878:	00050c63          	beqz	a0,7001890 <_ZN94_$LT$risc0_zkvm..guest..env..FdReader$u20$as$u20$risc0_zkvm..serde..deserializer..WordRead$GT$17read_padded_bytes17h9f7bfde97f8562a1E+0xd0>
 700187c:	04a96663          	bltu	s2,a0,70018c8 <_ZN94_$LT$risc0_zkvm..guest..env..FdReader$u20$as$u20$risc0_zkvm..serde..deserializer..WordRead$GT$17read_padded_bytes17h9f7bfde97f8562a1E+0x108>
 7001880:	013509b3          	add	s3,a0,s3
 7001884:	40a90933          	sub	s2,s2,a0
 7001888:	00a484b3          	add	s1,s1,a0
 700188c:	fc091ce3          	bnez	s2,7001864 <_ZN94_$LT$risc0_zkvm..guest..env..FdReader$u20$as$u20$risc0_zkvm..serde..deserializer..WordRead$GT$17read_padded_bytes17h9f7bfde97f8562a1E+0xa4>
 7001890:	00700513          	li	a0,7
 7001894:	01498863          	beq	s3,s4,70018a4 <_ZN94_$LT$risc0_zkvm..guest..env..FdReader$u20$as$u20$risc0_zkvm..serde..deserializer..WordRead$GT$17read_padded_bytes17h9f7bfde97f8562a1E+0xe4>
 7001898:	00400513          	li	a0,4
 700189c:	0080006f          	j	70018a4 <_ZN94_$LT$risc0_zkvm..guest..env..FdReader$u20$as$u20$risc0_zkvm..serde..deserializer..WordRead$GT$17read_padded_bytes17h9f7bfde97f8562a1E+0xe4>
 70018a0:	00700513          	li	a0,7
 70018a4:	01c12083          	lw	ra,28(sp)
 70018a8:	01812403          	lw	s0,24(sp)
 70018ac:	01412483          	lw	s1,20(sp)
 70018b0:	01012903          	lw	s2,16(sp)
 70018b4:	00c12983          	lw	s3,12(sp)
 70018b8:	00812a03          	lw	s4,8(sp)
 70018bc:	00412a83          	lw	s5,4(sp)
 70018c0:	02010113          	add	sp,sp,32
 70018c4:	00008067          	ret
 70018c8:	07007537          	lui	a0,0x7007
 70018cc:	12c50513          	add	a0,a0,300 # 700712c <.Lanon.2e428254a4f422f96131b722f5510c98.9>
 70018d0:	070075b7          	lui	a1,0x7007
 70018d4:	20058613          	add	a2,a1,512 # 7007200 <.Lanon.2e428254a4f422f96131b722f5510c98.14>
 70018d8:	02300593          	li	a1,35
 70018dc:	00005097          	auipc	ra,0x5
 70018e0:	0c8080e7          	jalr	200(ra) # 70069a4 <_ZN4core9panicking5panic17h5d0c0b97b225c667E>
 70018e4:	c0001073          	unimp

070018e8 <_ZN9risc0_zkp4core4hash3sha5Block14as_half_blocks17heb79b3377edea46dE>:
 70018e8:	02050593          	add	a1,a0,32
 70018ec:	00008067          	ret

070018f0 <_ZN104_$LT$risc0_zkp..core..digest..Digest$u20$as$u20$core..convert..AsRef$LT$$u5b$u32$u3b$$u20$_$u5d$$GT$$GT$6as_ref17hc5aa0985ccf04e9bE>:
 70018f0:	00008067          	ret

070018f4 <_ZN92_$LT$risc0_zkp..core..digest..Digest$u20$as$u20$core..convert..AsRef$LT$$u5b$u8$u5d$$GT$$GT$6as_ref17h9b0a1bca79cda51dE>:
 70018f4:	02000593          	li	a1,32
 70018f8:	00008067          	ret

070018fc <sys_read>:
 70018fc:	00060793          	mv	a5,a2
 7001900:	00058813          	mv	a6,a1
 7001904:	00050693          	mv	a3,a0
 7001908:	07007537          	lui	a0,0x7007
 700190c:	26f50613          	add	a2,a0,623 # 700726f <.Lanon.1e336525450390b565d102459bb3bc9b.14>
 7001910:	00200293          	li	t0,2
 7001914:	00000513          	li	a0,0
 7001918:	00000593          	li	a1,0
 700191c:	00000073          	ecall
 7001920:	00a7e463          	bltu	a5,a0,7001928 <sys_read+0x2c>
 7001924:	00050793          	mv	a5,a0
 7001928:	00387513          	and	a0,a6,3
 700192c:	00400593          	li	a1,4
 7001930:	40a58633          	sub	a2,a1,a0
 7001934:	00078593          	mv	a1,a5
 7001938:	00c7e463          	bltu	a5,a2,7001940 <sys_read+0x44>
 700193c:	00060593          	mv	a1,a2
 7001940:	00000713          	li	a4,0
 7001944:	00050463          	beqz	a0,700194c <sys_read+0x50>
 7001948:	00058713          	mv	a4,a1
 700194c:	07007537          	lui	a0,0x7007
 7001950:	2a050613          	add	a2,a0,672 # 70072a0 <.Lanon.1e336525450390b565d102459bb3bc9b.15>
 7001954:	00200293          	li	t0,2
 7001958:	00000513          	li	a0,0
 700195c:	00000593          	li	a1,0
 7001960:	00000073          	ecall
 7001964:	00070e63          	beqz	a4,7001980 <sys_read+0x84>
 7001968:	00070513          	mv	a0,a4
 700196c:	00b80023          	sb	a1,0(a6)
 7001970:	0085d593          	srl	a1,a1,0x8
 7001974:	fff50513          	add	a0,a0,-1
 7001978:	00180813          	add	a6,a6,1
 700197c:	fe0518e3          	bnez	a0,700196c <sys_read+0x70>
 7001980:	04e78263          	beq	a5,a4,70019c4 <sys_read+0xc8>
 7001984:	40e78733          	sub	a4,a5,a4
 7001988:	00275593          	srl	a1,a4,0x2
 700198c:	07007537          	lui	a0,0x7007
 7001990:	2a050613          	add	a2,a0,672 # 70072a0 <.Lanon.1e336525450390b565d102459bb3bc9b.15>
 7001994:	00200293          	li	t0,2
 7001998:	00377893          	and	a7,a4,3
 700199c:	00080513          	mv	a0,a6
 70019a0:	00000073          	ecall
 70019a4:	02088063          	beqz	a7,70019c4 <sys_read+0xc8>
 70019a8:	ffc77513          	and	a0,a4,-4
 70019ac:	00a80533          	add	a0,a6,a0
 70019b0:	00b50023          	sb	a1,0(a0)
 70019b4:	0085d593          	srl	a1,a1,0x8
 70019b8:	fff88893          	add	a7,a7,-1
 70019bc:	00150513          	add	a0,a0,1
 70019c0:	fe0898e3          	bnez	a7,70019b0 <sys_read+0xb4>
 70019c4:	00078513          	mv	a0,a5
 70019c8:	00008067          	ret

070019cc <_ZN19risc0_zkvm_platform7syscall14sys_read_words17h6d319333f02563a4E>:
 70019cc:	00060793          	mv	a5,a2
 70019d0:	00261713          	sll	a4,a2,0x2
 70019d4:	07007637          	lui	a2,0x7007
 70019d8:	2a060613          	add	a2,a2,672 # 70072a0 <.Lanon.1e336525450390b565d102459bb3bc9b.15>
 70019dc:	00200293          	li	t0,2
 70019e0:	00050693          	mv	a3,a0
 70019e4:	00058513          	mv	a0,a1
 70019e8:	00078593          	mv	a1,a5
 70019ec:	00000073          	ecall
 70019f0:	00a76463          	bltu	a4,a0,70019f8 <_ZN19risc0_zkvm_platform7syscall14sys_read_words17h6d319333f02563a4E+0x2c>
 70019f4:	00008067          	ret
 70019f8:	07007537          	lui	a0,0x7007
 70019fc:	2cb50513          	add	a0,a0,715 # 70072cb <.Lanon.1e336525450390b565d102459bb3bc9b.16>
 7001a00:	070075b7          	lui	a1,0x7007
 7001a04:	30058613          	add	a2,a1,768 # 7007300 <.Lanon.1e336525450390b565d102459bb3bc9b.17>
 7001a08:	03400593          	li	a1,52
 7001a0c:	00005097          	auipc	ra,0x5
 7001a10:	f98080e7          	jalr	-104(ra) # 70069a4 <_ZN4core9panicking5panic17h5d0c0b97b225c667E>
 7001a14:	c0001073          	unimp

07001a18 <sys_write>:
 7001a18:	00060793          	mv	a5,a2
 7001a1c:	07007637          	lui	a2,0x7007
 7001a20:	31060613          	add	a2,a2,784 # 7007310 <.Lanon.1e336525450390b565d102459bb3bc9b.18>
 7001a24:	00200293          	li	t0,2
 7001a28:	00050693          	mv	a3,a0
 7001a2c:	00058713          	mv	a4,a1
 7001a30:	00000513          	li	a0,0
 7001a34:	00000593          	li	a1,0
 7001a38:	00000073          	ecall
 7001a3c:	00008067          	ret

07001a40 <sys_alloc_words>:
 7001a40:	000805b7          	lui	a1,0x80
 7001a44:	0005a683          	lw	a3,0(a1) # 80000 <_ZN19risc0_zkvm_platform7syscall20HEAP_WORDS_REMAINING17hd21b26ffaffc1daaE.0>
 7001a48:	40a68633          	sub	a2,a3,a0
 7001a4c:	00c6ec63          	bltu	a3,a2,7001a64 <sys_alloc_words+0x24>
 7001a50:	00269513          	sll	a0,a3,0x2
 7001a54:	070006b7          	lui	a3,0x7000
 7001a58:	40a68533          	sub	a0,a3,a0
 7001a5c:	00c5a023          	sw	a2,0(a1)
 7001a60:	00008067          	ret
 7001a64:	07007537          	lui	a0,0x7007
 7001a68:	33c50513          	add	a0,a0,828 # 700733c <.Lanon.1e336525450390b565d102459bb3bc9b.20>
 7001a6c:	070075b7          	lui	a1,0x7007
 7001a70:	34c58613          	add	a2,a1,844 # 700734c <.Lanon.1e336525450390b565d102459bb3bc9b.22>
 7001a74:	00e00593          	li	a1,14
 7001a78:	00004097          	auipc	ra,0x4
 7001a7c:	268080e7          	jalr	616(ra) # 7005ce0 <_ZN4core6option13expect_failed17h8186a22d26a8b014E>
 7001a80:	c0001073          	unimp

07001a84 <_ZN4core3ptr28drop_in_place$LT$$RF$str$GT$17h89e424b3952f1ef4E>:
 7001a84:	00008067          	ret

07001a88 <_ZN4core3ptr42drop_in_place$LT$alloc..string..String$GT$17hd02a500cbcaf0767E>:
 7001a88:	00452583          	lw	a1,4(a0)
 7001a8c:	00058a63          	beqz	a1,7001aa0 <_ZN4core3ptr42drop_in_place$LT$alloc..string..String$GT$17hd02a500cbcaf0767E+0x18>
 7001a90:	00052503          	lw	a0,0(a0)
 7001a94:	00100613          	li	a2,1
 7001a98:	fffff317          	auipc	t1,0xfffff
 7001a9c:	b9430067          	jr	-1132(t1) # 700062c <__rust_dealloc>
 7001aa0:	00008067          	ret

07001aa4 <_ZN3std2io5impls74_$LT$impl$u20$std..io..Write$u20$for$u20$alloc..vec..Vec$LT$u8$C$A$GT$$GT$5write17h6c9060209d983b7eE>:
 7001aa4:	fe010113          	add	sp,sp,-32
 7001aa8:	00112e23          	sw	ra,28(sp)
 7001aac:	00812c23          	sw	s0,24(sp)
 7001ab0:	00912a23          	sw	s1,20(sp)
 7001ab4:	01212823          	sw	s2,16(sp)
 7001ab8:	01312623          	sw	s3,12(sp)
 7001abc:	01412423          	sw	s4,8(sp)
 7001ac0:	00058413          	mv	s0,a1
 7001ac4:	0085a983          	lw	s3,8(a1)
 7001ac8:	0045a583          	lw	a1,4(a1)
 7001acc:	413585b3          	sub	a1,a1,s3
 7001ad0:	00068913          	mv	s2,a3
 7001ad4:	00060a13          	mv	s4,a2
 7001ad8:	00050493          	mv	s1,a0
 7001adc:	04d5e863          	bltu	a1,a3,7001b2c <_ZN3std2io5impls74_$LT$impl$u20$std..io..Write$u20$for$u20$alloc..vec..Vec$LT$u8$C$A$GT$$GT$5write17h6c9060209d983b7eE+0x88>
 7001ae0:	00042503          	lw	a0,0(s0)
 7001ae4:	01350533          	add	a0,a0,s3
 7001ae8:	000a0593          	mv	a1,s4
 7001aec:	00090613          	mv	a2,s2
 7001af0:	fffff097          	auipc	ra,0xfffff
 7001af4:	43c080e7          	jalr	1084(ra) # 7000f2c <memcpy>
 7001af8:	01298533          	add	a0,s3,s2
 7001afc:	00a42423          	sw	a0,8(s0)
 7001b00:	0124a223          	sw	s2,4(s1)
 7001b04:	00400513          	li	a0,4
 7001b08:	00a48023          	sb	a0,0(s1)
 7001b0c:	01c12083          	lw	ra,28(sp)
 7001b10:	01812403          	lw	s0,24(sp)
 7001b14:	01412483          	lw	s1,20(sp)
 7001b18:	01012903          	lw	s2,16(sp)
 7001b1c:	00c12983          	lw	s3,12(sp)
 7001b20:	00812a03          	lw	s4,8(sp)
 7001b24:	02010113          	add	sp,sp,32
 7001b28:	00008067          	ret
 7001b2c:	00040513          	mv	a0,s0
 7001b30:	00098593          	mv	a1,s3
 7001b34:	00090613          	mv	a2,s2
 7001b38:	00001097          	auipc	ra,0x1
 7001b3c:	230080e7          	jalr	560(ra) # 7002d68 <_ZN5alloc7raw_vec19RawVec$LT$T$C$A$GT$7reserve21do_reserve_and_handle17h28a3fc8174e1241cE>
 7001b40:	00842983          	lw	s3,8(s0)
 7001b44:	f9dff06f          	j	7001ae0 <_ZN3std2io5impls74_$LT$impl$u20$std..io..Write$u20$for$u20$alloc..vec..Vec$LT$u8$C$A$GT$$GT$5write17h6c9060209d983b7eE+0x3c>

07001b48 <_ZN3std2io5impls74_$LT$impl$u20$std..io..Write$u20$for$u20$alloc..vec..Vec$LT$u8$C$A$GT$$GT$14write_vectored17h470c24b43cc95c17E>:
 7001b48:	fd010113          	add	sp,sp,-48
 7001b4c:	02112623          	sw	ra,44(sp)
 7001b50:	02812423          	sw	s0,40(sp)
 7001b54:	02912223          	sw	s1,36(sp)
 7001b58:	03212023          	sw	s2,32(sp)
 7001b5c:	01312e23          	sw	s3,28(sp)
 7001b60:	01412c23          	sw	s4,24(sp)
 7001b64:	01512a23          	sw	s5,20(sp)
 7001b68:	01612823          	sw	s6,16(sp)
 7001b6c:	01712623          	sw	s7,12(sp)
 7001b70:	00050413          	mv	s0,a0
 7001b74:	0a068063          	beqz	a3,7001c14 <_ZN3std2io5impls74_$LT$impl$u20$std..io..Write$u20$for$u20$alloc..vec..Vec$LT$u8$C$A$GT$$GT$14write_vectored17h470c24b43cc95c17E+0xcc>
 7001b78:	00060493          	mv	s1,a2
 7001b7c:	00058913          	mv	s2,a1
 7001b80:	00000993          	li	s3,0
 7001b84:	00369513          	sll	a0,a3,0x3
 7001b88:	00a60bb3          	add	s7,a2,a0
 7001b8c:	00460593          	add	a1,a2,4
 7001b90:	0005a603          	lw	a2,0(a1)
 7001b94:	013609b3          	add	s3,a2,s3
 7001b98:	ff850513          	add	a0,a0,-8
 7001b9c:	00858593          	add	a1,a1,8
 7001ba0:	fe0518e3          	bnez	a0,7001b90 <_ZN3std2io5impls74_$LT$impl$u20$std..io..Write$u20$for$u20$alloc..vec..Vec$LT$u8$C$A$GT$$GT$14write_vectored17h470c24b43cc95c17E+0x48>
 7001ba4:	00892583          	lw	a1,8(s2)
 7001ba8:	00492503          	lw	a0,4(s2)
 7001bac:	40b50533          	sub	a0,a0,a1
 7001bb0:	0b356063          	bltu	a0,s3,7001c50 <_ZN3std2io5impls74_$LT$impl$u20$std..io..Write$u20$for$u20$alloc..vec..Vec$LT$u8$C$A$GT$$GT$14write_vectored17h470c24b43cc95c17E+0x108>
 7001bb4:	00892a03          	lw	s4,8(s2)
 7001bb8:	02c0006f          	j	7001be4 <_ZN3std2io5impls74_$LT$impl$u20$std..io..Write$u20$for$u20$alloc..vec..Vec$LT$u8$C$A$GT$$GT$14write_vectored17h470c24b43cc95c17E+0x9c>
 7001bbc:	00092503          	lw	a0,0(s2)
 7001bc0:	01450533          	add	a0,a0,s4
 7001bc4:	000b0593          	mv	a1,s6
 7001bc8:	000a8613          	mv	a2,s5
 7001bcc:	fffff097          	auipc	ra,0xfffff
 7001bd0:	360080e7          	jalr	864(ra) # 7000f2c <memcpy>
 7001bd4:	015a0a33          	add	s4,s4,s5
 7001bd8:	00848493          	add	s1,s1,8
 7001bdc:	01492423          	sw	s4,8(s2)
 7001be0:	03748c63          	beq	s1,s7,7001c18 <_ZN3std2io5impls74_$LT$impl$u20$std..io..Write$u20$for$u20$alloc..vec..Vec$LT$u8$C$A$GT$$GT$14write_vectored17h470c24b43cc95c17E+0xd0>
 7001be4:	00492503          	lw	a0,4(s2)
 7001be8:	0044aa83          	lw	s5,4(s1)
 7001bec:	0004ab03          	lw	s6,0(s1)
 7001bf0:	41450533          	sub	a0,a0,s4
 7001bf4:	fd5574e3          	bgeu	a0,s5,7001bbc <_ZN3std2io5impls74_$LT$impl$u20$std..io..Write$u20$for$u20$alloc..vec..Vec$LT$u8$C$A$GT$$GT$14write_vectored17h470c24b43cc95c17E+0x74>
 7001bf8:	00090513          	mv	a0,s2
 7001bfc:	000a0593          	mv	a1,s4
 7001c00:	000a8613          	mv	a2,s5
 7001c04:	00001097          	auipc	ra,0x1
 7001c08:	164080e7          	jalr	356(ra) # 7002d68 <_ZN5alloc7raw_vec19RawVec$LT$T$C$A$GT$7reserve21do_reserve_and_handle17h28a3fc8174e1241cE>
 7001c0c:	00892a03          	lw	s4,8(s2)
 7001c10:	fadff06f          	j	7001bbc <_ZN3std2io5impls74_$LT$impl$u20$std..io..Write$u20$for$u20$alloc..vec..Vec$LT$u8$C$A$GT$$GT$14write_vectored17h470c24b43cc95c17E+0x74>
 7001c14:	00000993          	li	s3,0
 7001c18:	01342223          	sw	s3,4(s0)
 7001c1c:	00400513          	li	a0,4
 7001c20:	00a40023          	sb	a0,0(s0)
 7001c24:	02c12083          	lw	ra,44(sp)
 7001c28:	02812403          	lw	s0,40(sp)
 7001c2c:	02412483          	lw	s1,36(sp)
 7001c30:	02012903          	lw	s2,32(sp)
 7001c34:	01c12983          	lw	s3,28(sp)
 7001c38:	01812a03          	lw	s4,24(sp)
 7001c3c:	01412a83          	lw	s5,20(sp)
 7001c40:	01012b03          	lw	s6,16(sp)
 7001c44:	00c12b83          	lw	s7,12(sp)
 7001c48:	03010113          	add	sp,sp,48
 7001c4c:	00008067          	ret
 7001c50:	00090513          	mv	a0,s2
 7001c54:	00098613          	mv	a2,s3
 7001c58:	00001097          	auipc	ra,0x1
 7001c5c:	110080e7          	jalr	272(ra) # 7002d68 <_ZN5alloc7raw_vec19RawVec$LT$T$C$A$GT$7reserve21do_reserve_and_handle17h28a3fc8174e1241cE>
 7001c60:	f55ff06f          	j	7001bb4 <_ZN3std2io5impls74_$LT$impl$u20$std..io..Write$u20$for$u20$alloc..vec..Vec$LT$u8$C$A$GT$$GT$14write_vectored17h470c24b43cc95c17E+0x6c>

07001c64 <_ZN3std2io5impls74_$LT$impl$u20$std..io..Write$u20$for$u20$alloc..vec..Vec$LT$u8$C$A$GT$$GT$17is_write_vectored17he0432f9480fbd3ceE>:
 7001c64:	00100513          	li	a0,1
 7001c68:	00008067          	ret

07001c6c <_ZN3std2io5impls74_$LT$impl$u20$std..io..Write$u20$for$u20$alloc..vec..Vec$LT$u8$C$A$GT$$GT$9write_all17h3a7faec1fd430df8E>:
 7001c6c:	fe010113          	add	sp,sp,-32
 7001c70:	00112e23          	sw	ra,28(sp)
 7001c74:	00812c23          	sw	s0,24(sp)
 7001c78:	00912a23          	sw	s1,20(sp)
 7001c7c:	01212823          	sw	s2,16(sp)
 7001c80:	01312623          	sw	s3,12(sp)
 7001c84:	01412423          	sw	s4,8(sp)
 7001c88:	00058413          	mv	s0,a1
 7001c8c:	0085a983          	lw	s3,8(a1)
 7001c90:	0045a583          	lw	a1,4(a1)
 7001c94:	413585b3          	sub	a1,a1,s3
 7001c98:	00068913          	mv	s2,a3
 7001c9c:	00060a13          	mv	s4,a2
 7001ca0:	00050493          	mv	s1,a0
 7001ca4:	04d5e663          	bltu	a1,a3,7001cf0 <_ZN3std2io5impls74_$LT$impl$u20$std..io..Write$u20$for$u20$alloc..vec..Vec$LT$u8$C$A$GT$$GT$9write_all17h3a7faec1fd430df8E+0x84>
 7001ca8:	00042503          	lw	a0,0(s0)
 7001cac:	01350533          	add	a0,a0,s3
 7001cb0:	000a0593          	mv	a1,s4
 7001cb4:	00090613          	mv	a2,s2
 7001cb8:	fffff097          	auipc	ra,0xfffff
 7001cbc:	274080e7          	jalr	628(ra) # 7000f2c <memcpy>
 7001cc0:	01298533          	add	a0,s3,s2
 7001cc4:	00a42423          	sw	a0,8(s0)
 7001cc8:	00400513          	li	a0,4
 7001ccc:	00a48023          	sb	a0,0(s1)
 7001cd0:	01c12083          	lw	ra,28(sp)
 7001cd4:	01812403          	lw	s0,24(sp)
 7001cd8:	01412483          	lw	s1,20(sp)
 7001cdc:	01012903          	lw	s2,16(sp)
 7001ce0:	00c12983          	lw	s3,12(sp)
 7001ce4:	00812a03          	lw	s4,8(sp)
 7001ce8:	02010113          	add	sp,sp,32
 7001cec:	00008067          	ret
 7001cf0:	00040513          	mv	a0,s0
 7001cf4:	00098593          	mv	a1,s3
 7001cf8:	00090613          	mv	a2,s2
 7001cfc:	00001097          	auipc	ra,0x1
 7001d00:	06c080e7          	jalr	108(ra) # 7002d68 <_ZN5alloc7raw_vec19RawVec$LT$T$C$A$GT$7reserve21do_reserve_and_handle17h28a3fc8174e1241cE>
 7001d04:	00842983          	lw	s3,8(s0)
 7001d08:	fa1ff06f          	j	7001ca8 <_ZN3std2io5impls74_$LT$impl$u20$std..io..Write$u20$for$u20$alloc..vec..Vec$LT$u8$C$A$GT$$GT$9write_all17h3a7faec1fd430df8E+0x3c>

07001d0c <_ZN3std2io5impls74_$LT$impl$u20$std..io..Write$u20$for$u20$alloc..vec..Vec$LT$u8$C$A$GT$$GT$5flush17h4a88afa7c4f2b060E>:
 7001d0c:	00400593          	li	a1,4
 7001d10:	00b50023          	sb	a1,0(a0)
 7001d14:	00008067          	ret

07001d18 <_ZN3std9panicking12default_hook17h02c6ee80d4a668f9E>:
 7001d18:	f9010113          	add	sp,sp,-112
 7001d1c:	06112623          	sw	ra,108(sp)
 7001d20:	06812423          	sw	s0,104(sp)
 7001d24:	06912223          	sw	s1,100(sp)
 7001d28:	07212023          	sw	s2,96(sp)
 7001d2c:	00050493          	mv	s1,a0
 7001d30:	00000513          	li	a0,0
 7001d34:	00002097          	auipc	ra,0x2
 7001d38:	aac080e7          	jalr	-1364(ra) # 70037e0 <_ZN3std9panicking11panic_count17LOCAL_PANIC_COUNT7__getit17hce72445e52496182E.llvm.14256562575406249000>
 7001d3c:	3e050c63          	beqz	a0,7002134 <_ZN3std9panicking12default_hook17h02c6ee80d4a668f9E+0x41c>
 7001d40:	00300513          	li	a0,3
 7001d44:	00a105a3          	sb	a0,11(sp)
 7001d48:	00048513          	mv	a0,s1
 7001d4c:	00004097          	auipc	ra,0x4
 7001d50:	b5c080e7          	jalr	-1188(ra) # 70058a8 <_ZN4core5panic10panic_info9PanicInfo8location17h016da194399f3e8fE>
 7001d54:	32050863          	beqz	a0,7002084 <_ZN3std9panicking12default_hook17h02c6ee80d4a668f9E+0x36c>
 7001d58:	00a12623          	sw	a0,12(sp)
 7001d5c:	00048513          	mv	a0,s1
 7001d60:	00004097          	auipc	ra,0x4
 7001d64:	b30080e7          	jalr	-1232(ra) # 7005890 <_ZN4core5panic10panic_info9PanicInfo7payload17h9f01f7c4facac74eE>
 7001d68:	00c5a583          	lw	a1,12(a1)
 7001d6c:	00050413          	mv	s0,a0
 7001d70:	000580e7          	jalr	a1
 7001d74:	7444d637          	lui	a2,0x7444d
 7001d78:	ec760613          	add	a2,a2,-313 # 7444cec7 <anon.811f17354c499ab9db5bac79de70cdc4.0.llvm.3008685313708409704+0x6d4448d0>
 7001d7c:	00c5c5b3          	xor	a1,a1,a2
 7001d80:	66a4d637          	lui	a2,0x66a4d
 7001d84:	8eb60613          	add	a2,a2,-1813 # 66a4c8eb <anon.811f17354c499ab9db5bac79de70cdc4.0.llvm.3008685313708409704+0x5fa442f4>
 7001d88:	00c54533          	xor	a0,a0,a2
 7001d8c:	00b56533          	or	a0,a0,a1
 7001d90:	00153513          	seqz	a0,a0
 7001d94:	008035b3          	snez	a1,s0
 7001d98:	00a5f533          	and	a0,a1,a0
 7001d9c:	04051c63          	bnez	a0,7001df4 <_ZN3std9panicking12default_hook17h02c6ee80d4a668f9E+0xdc>
 7001da0:	00048513          	mv	a0,s1
 7001da4:	00004097          	auipc	ra,0x4
 7001da8:	aec080e7          	jalr	-1300(ra) # 7005890 <_ZN4core5panic10panic_info9PanicInfo7payload17h9f01f7c4facac74eE>
 7001dac:	00c5a583          	lw	a1,12(a1)
 7001db0:	00050413          	mv	s0,a0
 7001db4:	000580e7          	jalr	a1
 7001db8:	f962e637          	lui	a2,0xf962e
 7001dbc:	1d660613          	add	a2,a2,470 # f962e1d6 <anon.811f17354c499ab9db5bac79de70cdc4.0.llvm.3008685313708409704+0xf2625bdf>
 7001dc0:	00c5c5b3          	xor	a1,a1,a2
 7001dc4:	03348637          	lui	a2,0x3348
 7001dc8:	c4f60613          	add	a2,a2,-945 # 3347c4f <__heap_start+0x1347c4f>
 7001dcc:	00c54533          	xor	a0,a0,a2
 7001dd0:	00b56533          	or	a0,a0,a1
 7001dd4:	00a03533          	snez	a0,a0
 7001dd8:	00143593          	seqz	a1,s0
 7001ddc:	00a5e533          	or	a0,a1,a0
 7001de0:	00050e63          	beqz	a0,7001dfc <_ZN3std9panicking12default_hook17h02c6ee80d4a668f9E+0xe4>
 7001de4:	07007537          	lui	a0,0x7007
 7001de8:	44450513          	add	a0,a0,1092 # 7007444 <.Lanon.31adeef965a1fecf39e1a7a9b10d5c8e.32>
 7001dec:	00c00593          	li	a1,12
 7001df0:	0180006f          	j	7001e08 <_ZN3std9panicking12default_hook17h02c6ee80d4a668f9E+0xf0>
 7001df4:	00440593          	add	a1,s0,4
 7001df8:	0080006f          	j	7001e00 <_ZN3std9panicking12default_hook17h02c6ee80d4a668f9E+0xe8>
 7001dfc:	00840593          	add	a1,s0,8
 7001e00:	00042503          	lw	a0,0(s0)
 7001e04:	0005a583          	lw	a1,0(a1)
 7001e08:	00a12823          	sw	a0,16(sp)
 7001e0c:	00b12a23          	sw	a1,20(sp)
 7001e10:	00080537          	lui	a0,0x80
 7001e14:	00450513          	add	a0,a0,4 # 80004 <_ZN3std10sys_common11thread_info11THREAD_INFO7__getit5__KEY17h0b9e5aa5a3bca13aE.llvm.9006096014459121332>
 7001e18:	00000593          	li	a1,0
 7001e1c:	00002097          	auipc	ra,0x2
 7001e20:	d0c080e7          	jalr	-756(ra) # 7003b28 <_ZN3std6thread5local2os12Key$LT$T$GT$3get17h4eb2c9aba7a806e6E>
 7001e24:	06050063          	beqz	a0,7001e84 <_ZN3std9panicking12default_hook17h02c6ee80d4a668f9E+0x16c>
 7001e28:	00050413          	mv	s0,a0
 7001e2c:	00052503          	lw	a0,0(a0)
 7001e30:	26051a63          	bnez	a0,70020a4 <_ZN3std9panicking12default_hook17h02c6ee80d4a668f9E+0x38c>
 7001e34:	00442503          	lw	a0,4(s0)
 7001e38:	fff00593          	li	a1,-1
 7001e3c:	00b42023          	sw	a1,0(s0)
 7001e40:	00051863          	bnez	a0,7001e50 <_ZN3std9panicking12default_hook17h02c6ee80d4a668f9E+0x138>
 7001e44:	00002097          	auipc	ra,0x2
 7001e48:	a54080e7          	jalr	-1452(ra) # 7003898 <_ZN3std6thread6Thread3new17hcc331c91952c9110E>
 7001e4c:	00a42223          	sw	a0,4(s0)
 7001e50:	00052583          	lw	a1,0(a0)
 7001e54:	00158613          	add	a2,a1,1
 7001e58:	00c52023          	sw	a2,0(a0)
 7001e5c:	2605c463          	bltz	a1,70020c4 <_ZN3std9panicking12default_hook17h02c6ee80d4a668f9E+0x3ac>
 7001e60:	00042583          	lw	a1,0(s0)
 7001e64:	00158593          	add	a1,a1,1
 7001e68:	00b42023          	sw	a1,0(s0)
 7001e6c:	00a12e23          	sw	a0,28(sp)
 7001e70:	01052583          	lw	a1,16(a0)
 7001e74:	00058a63          	beqz	a1,7001e88 <_ZN3std9panicking12default_hook17h02c6ee80d4a668f9E+0x170>
 7001e78:	01452503          	lw	a0,20(a0)
 7001e7c:	fff50513          	add	a0,a0,-1
 7001e80:	0140006f          	j	7001e94 <_ZN3std9panicking12default_hook17h02c6ee80d4a668f9E+0x17c>
 7001e84:	00012e23          	sw	zero,28(sp)
 7001e88:	07007537          	lui	a0,0x7007
 7001e8c:	45050593          	add	a1,a0,1104 # 7007450 <.Lanon.31adeef965a1fecf39e1a7a9b10d5c8e.33>
 7001e90:	00900513          	li	a0,9
 7001e94:	02b12023          	sw	a1,32(sp)
 7001e98:	02a12223          	sw	a0,36(sp)
 7001e9c:	02010513          	add	a0,sp,32
 7001ea0:	02a12423          	sw	a0,40(sp)
 7001ea4:	01010513          	add	a0,sp,16
 7001ea8:	02a12623          	sw	a0,44(sp)
 7001eac:	00080537          	lui	a0,0x80
 7001eb0:	03054583          	lbu	a1,48(a0) # 80030 <_ZN3std2io5stdio19OUTPUT_CAPTURE_USED17ha6f52b8142ee3cf0E.0.llvm.17917170917373548271>
 7001eb4:	00c10613          	add	a2,sp,12
 7001eb8:	02c12823          	sw	a2,48(sp)
 7001ebc:	00b10613          	add	a2,sp,11
 7001ec0:	02c12a23          	sw	a2,52(sp)
 7001ec4:	0e058463          	beqz	a1,7001fac <_ZN3std9panicking12default_hook17h02c6ee80d4a668f9E+0x294>
 7001ec8:	00100593          	li	a1,1
 7001ecc:	02b50823          	sb	a1,48(a0)
 7001ed0:	00000513          	li	a0,0
 7001ed4:	00002097          	auipc	ra,0x2
 7001ed8:	828080e7          	jalr	-2008(ra) # 70036fc <_ZN3std2io5stdio14OUTPUT_CAPTURE7__getit17hbb9798fd7e0adf8aE.llvm.17917170917373548271>
 7001edc:	24050c63          	beqz	a0,7002134 <_ZN3std9panicking12default_hook17h02c6ee80d4a668f9E+0x41c>
 7001ee0:	00052483          	lw	s1,0(a0)
 7001ee4:	00052023          	sw	zero,0(a0)
 7001ee8:	02912e23          	sw	s1,60(sp)
 7001eec:	0c048263          	beqz	s1,7001fb0 <_ZN3std9panicking12default_hook17h02c6ee80d4a668f9E+0x298>
 7001ef0:	0084c503          	lbu	a0,8(s1)
 7001ef4:	00157593          	and	a1,a0,1
 7001ef8:	04b10c23          	sb	a1,88(sp)
 7001efc:	00100513          	li	a0,1
 7001f00:	00a48423          	sb	a0,8(s1)
 7001f04:	1c059463          	bnez	a1,70020cc <_ZN3std9panicking12default_hook17h02c6ee80d4a668f9E+0x3b4>
 7001f08:	00080537          	lui	a0,0x80
 7001f0c:	03452503          	lw	a0,52(a0) # 80034 <_ZN3std9panicking11panic_count18GLOBAL_PANIC_COUNT17h9bef03536075a61aE>
 7001f10:	800005b7          	lui	a1,0x80000
 7001f14:	fff58913          	add	s2,a1,-1 # 7fffffff <anon.811f17354c499ab9db5bac79de70cdc4.0.llvm.3008685313708409704+0x78ff7a08>
 7001f18:	01257533          	and	a0,a0,s2
 7001f1c:	12051263          	bnez	a0,7002040 <_ZN3std9panicking12default_hook17h02c6ee80d4a668f9E+0x328>
 7001f20:	00c48593          	add	a1,s1,12
 7001f24:	07007537          	lui	a0,0x7007
 7001f28:	48450613          	add	a2,a0,1156 # 7007484 <.Lanon.31adeef965a1fecf39e1a7a9b10d5c8e.35>
 7001f2c:	02810513          	add	a0,sp,40
 7001f30:	00000097          	auipc	ra,0x0
 7001f34:	230080e7          	jalr	560(ra) # 7002160 <_ZN3std9panicking12default_hook28_$u7b$$u7b$closure$u7d$$u7d$17h98caa6a0aed26f78E>
 7001f38:	00080537          	lui	a0,0x80
 7001f3c:	03452503          	lw	a0,52(a0) # 80034 <_ZN3std9panicking11panic_count18GLOBAL_PANIC_COUNT17h9bef03536075a61aE>
 7001f40:	01257533          	and	a0,a0,s2
 7001f44:	12051463          	bnez	a0,700206c <_ZN3std9panicking12default_hook17h02c6ee80d4a668f9E+0x354>
 7001f48:	00048423          	sb	zero,8(s1)
 7001f4c:	00080537          	lui	a0,0x80
 7001f50:	00100413          	li	s0,1
 7001f54:	02850823          	sb	s0,48(a0) # 80030 <_ZN3std2io5stdio19OUTPUT_CAPTURE_USED17ha6f52b8142ee3cf0E.0.llvm.17917170917373548271>
 7001f58:	04912023          	sw	s1,64(sp)
 7001f5c:	00000513          	li	a0,0
 7001f60:	00001097          	auipc	ra,0x1
 7001f64:	79c080e7          	jalr	1948(ra) # 70036fc <_ZN3std2io5stdio14OUTPUT_CAPTURE7__getit17hbb9798fd7e0adf8aE.llvm.17917170917373548271>
 7001f68:	1a050863          	beqz	a0,7002118 <_ZN3std9panicking12default_hook17h02c6ee80d4a668f9E+0x400>
 7001f6c:	00052583          	lw	a1,0(a0)
 7001f70:	00952023          	sw	s1,0(a0)
 7001f74:	04b12023          	sw	a1,64(sp)
 7001f78:	02058263          	beqz	a1,7001f9c <_ZN3std9panicking12default_hook17h02c6ee80d4a668f9E+0x284>
 7001f7c:	0005a503          	lw	a0,0(a1)
 7001f80:	fff50613          	add	a2,a0,-1
 7001f84:	00100693          	li	a3,1
 7001f88:	00c5a023          	sw	a2,0(a1)
 7001f8c:	00d51863          	bne	a0,a3,7001f9c <_ZN3std9panicking12default_hook17h02c6ee80d4a668f9E+0x284>
 7001f90:	04010513          	add	a0,sp,64
 7001f94:	00001097          	auipc	ra,0x1
 7001f98:	674080e7          	jalr	1652(ra) # 7003608 <_ZN5alloc4sync12Arc$LT$T$GT$9drop_slow17h9740c3a8f539a67cE>
 7001f9c:	00100413          	li	s0,1
 7001fa0:	01c12503          	lw	a0,28(sp)
 7001fa4:	02051863          	bnez	a0,7001fd4 <_ZN3std9panicking12default_hook17h02c6ee80d4a668f9E+0x2bc>
 7001fa8:	04c0006f          	j	7001ff4 <_ZN3std9panicking12default_hook17h02c6ee80d4a668f9E+0x2dc>
 7001fac:	02012e23          	sw	zero,60(sp)
 7001fb0:	07007537          	lui	a0,0x7007
 7001fb4:	45c50613          	add	a2,a0,1116 # 700745c <.Lanon.31adeef965a1fecf39e1a7a9b10d5c8e.34>
 7001fb8:	02810513          	add	a0,sp,40
 7001fbc:	05810593          	add	a1,sp,88
 7001fc0:	00000097          	auipc	ra,0x0
 7001fc4:	1a0080e7          	jalr	416(ra) # 7002160 <_ZN3std9panicking12default_hook28_$u7b$$u7b$closure$u7d$$u7d$17h98caa6a0aed26f78E>
 7001fc8:	00000413          	li	s0,0
 7001fcc:	01c12503          	lw	a0,28(sp)
 7001fd0:	02050263          	beqz	a0,7001ff4 <_ZN3std9panicking12default_hook17h02c6ee80d4a668f9E+0x2dc>
 7001fd4:	00052583          	lw	a1,0(a0)
 7001fd8:	fff58613          	add	a2,a1,-1
 7001fdc:	00100693          	li	a3,1
 7001fe0:	00c52023          	sw	a2,0(a0)
 7001fe4:	00d59863          	bne	a1,a3,7001ff4 <_ZN3std9panicking12default_hook17h02c6ee80d4a668f9E+0x2dc>
 7001fe8:	01c10513          	add	a0,sp,28
 7001fec:	00001097          	auipc	ra,0x1
 7001ff0:	690080e7          	jalr	1680(ra) # 700367c <_ZN5alloc4sync12Arc$LT$T$GT$9drop_slow17ha046ddaa357e950cE>
 7001ff4:	03c12503          	lw	a0,60(sp)
 7001ff8:	00a035b3          	snez	a1,a0
 7001ffc:	fff44613          	not	a2,s0
 7002000:	00b675b3          	and	a1,a2,a1
 7002004:	02058263          	beqz	a1,7002028 <_ZN3std9panicking12default_hook17h02c6ee80d4a668f9E+0x310>
 7002008:	00052583          	lw	a1,0(a0)
 700200c:	fff58613          	add	a2,a1,-1
 7002010:	00100693          	li	a3,1
 7002014:	00c52023          	sw	a2,0(a0)
 7002018:	00d59863          	bne	a1,a3,7002028 <_ZN3std9panicking12default_hook17h02c6ee80d4a668f9E+0x310>
 700201c:	03c10513          	add	a0,sp,60
 7002020:	00001097          	auipc	ra,0x1
 7002024:	5e8080e7          	jalr	1512(ra) # 7003608 <_ZN5alloc4sync12Arc$LT$T$GT$9drop_slow17h9740c3a8f539a67cE>
 7002028:	06c12083          	lw	ra,108(sp)
 700202c:	06812403          	lw	s0,104(sp)
 7002030:	06412483          	lw	s1,100(sp)
 7002034:	06012903          	lw	s2,96(sp)
 7002038:	07010113          	add	sp,sp,112
 700203c:	00008067          	ret
 7002040:	00001097          	auipc	ra,0x1
 7002044:	740080e7          	jalr	1856(ra) # 7003780 <_ZN3std9panicking11panic_count17is_zero_slow_path17hc7714d9f060b0c3aE>
 7002048:	00050413          	mv	s0,a0
 700204c:	00c48593          	add	a1,s1,12
 7002050:	07007537          	lui	a0,0x7007
 7002054:	48450613          	add	a2,a0,1156 # 7007484 <.Lanon.31adeef965a1fecf39e1a7a9b10d5c8e.35>
 7002058:	02810513          	add	a0,sp,40
 700205c:	00000097          	auipc	ra,0x0
 7002060:	104080e7          	jalr	260(ra) # 7002160 <_ZN3std9panicking12default_hook28_$u7b$$u7b$closure$u7d$$u7d$17h98caa6a0aed26f78E>
 7002064:	ec041ae3          	bnez	s0,7001f38 <_ZN3std9panicking12default_hook17h02c6ee80d4a668f9E+0x220>
 7002068:	ee1ff06f          	j	7001f48 <_ZN3std9panicking12default_hook17h02c6ee80d4a668f9E+0x230>
 700206c:	00001097          	auipc	ra,0x1
 7002070:	714080e7          	jalr	1812(ra) # 7003780 <_ZN3std9panicking11panic_count17is_zero_slow_path17hc7714d9f060b0c3aE>
 7002074:	ec051ae3          	bnez	a0,7001f48 <_ZN3std9panicking12default_hook17h02c6ee80d4a668f9E+0x230>
 7002078:	00100513          	li	a0,1
 700207c:	00a484a3          	sb	a0,9(s1)
 7002080:	ec9ff06f          	j	7001f48 <_ZN3std9panicking12default_hook17h02c6ee80d4a668f9E+0x230>
 7002084:	07007537          	lui	a0,0x7007
 7002088:	4ac50513          	add	a0,a0,1196 # 70074ac <.Lanon.31adeef965a1fecf39e1a7a9b10d5c8e.36>
 700208c:	070075b7          	lui	a1,0x7007
 7002090:	4d858613          	add	a2,a1,1240 # 70074d8 <.Lanon.31adeef965a1fecf39e1a7a9b10d5c8e.37>
 7002094:	02b00593          	li	a1,43
 7002098:	00005097          	auipc	ra,0x5
 700209c:	90c080e7          	jalr	-1780(ra) # 70069a4 <_ZN4core9panicking5panic17h5d0c0b97b225c667E>
 70020a0:	c0001073          	unimp
 70020a4:	07007537          	lui	a0,0x7007
 70020a8:	70c50513          	add	a0,a0,1804 # 700770c <anon.bc0186976f2b4070236a5106e84f3a4e.5.llvm.9006096014459121332>
 70020ac:	070075b7          	lui	a1,0x7007
 70020b0:	71c58693          	add	a3,a1,1820 # 700771c <anon.bc0186976f2b4070236a5106e84f3a4e.6.llvm.9006096014459121332>
 70020b4:	070085b7          	lui	a1,0x7008
 70020b8:	9fc58713          	add	a4,a1,-1540 # 70079fc <anon.bc0186976f2b4070236a5106e84f3a4e.75.llvm.9006096014459121332>
 70020bc:	01000593          	li	a1,16
 70020c0:	0900006f          	j	7002150 <_ZN3std9panicking12default_hook17h02c6ee80d4a668f9E+0x438>
 70020c4:	c0001073          	unimp
 70020c8:	c0001073          	unimp
 70020cc:	070085b7          	lui	a1,0x7008
 70020d0:	a3858593          	add	a1,a1,-1480 # 7007a38 <anon.eff0a5df67630090483337dc173c00d6.102.llvm.17917170917373548271>
 70020d4:	04b12023          	sw	a1,64(sp)
 70020d8:	04a12223          	sw	a0,68(sp)
 70020dc:	04012423          	sw	zero,72(sp)
 70020e0:	07008537          	lui	a0,0x7008
 70020e4:	a3450513          	add	a0,a0,-1484 # 7007a34 <anon.eff0a5df67630090483337dc173c00d6.100.llvm.17917170917373548271>
 70020e8:	04a12823          	sw	a0,80(sp)
 70020ec:	04012a23          	sw	zero,84(sp)
 70020f0:	07008537          	lui	a0,0x7008
 70020f4:	a3450613          	add	a2,a0,-1484 # 7007a34 <anon.eff0a5df67630090483337dc173c00d6.100.llvm.17917170917373548271>
 70020f8:	07008537          	lui	a0,0x7008
 70020fc:	b1c50713          	add	a4,a0,-1252 # 7007b1c <anon.eff0a5df67630090483337dc173c00d6.104.llvm.17917170917373548271>
 7002100:	05810593          	add	a1,sp,88
 7002104:	04010693          	add	a3,sp,64
 7002108:	00000513          	li	a0,0
 700210c:	00001097          	auipc	ra,0x1
 7002110:	610080e7          	jalr	1552(ra) # 700371c <_ZN4core9panicking13assert_failed17h88b995a5c9938d12E>
 7002114:	c0001073          	unimp
 7002118:	0004a503          	lw	a0,0(s1)
 700211c:	fff50593          	add	a1,a0,-1
 7002120:	00b4a023          	sw	a1,0(s1)
 7002124:	00851863          	bne	a0,s0,7002134 <_ZN3std9panicking12default_hook17h02c6ee80d4a668f9E+0x41c>
 7002128:	04010513          	add	a0,sp,64
 700212c:	00001097          	auipc	ra,0x1
 7002130:	4dc080e7          	jalr	1244(ra) # 7003608 <_ZN5alloc4sync12Arc$LT$T$GT$9drop_slow17h9740c3a8f539a67cE>
 7002134:	07008537          	lui	a0,0x7008
 7002138:	cbb50513          	add	a0,a0,-837 # 7007cbb <anon.e5acf19516f4a9cd5b82bd5981941ef5.15.llvm.13949807993874650229>
 700213c:	070085b7          	lui	a1,0x7008
 7002140:	d0458693          	add	a3,a1,-764 # 7007d04 <anon.e5acf19516f4a9cd5b82bd5981941ef5.16.llvm.13949807993874650229>
 7002144:	070085b7          	lui	a1,0x7008
 7002148:	dd858713          	add	a4,a1,-552 # 7007dd8 <anon.e5acf19516f4a9cd5b82bd5981941ef5.18.llvm.13949807993874650229>
 700214c:	04600593          	li	a1,70
 7002150:	05810613          	add	a2,sp,88
 7002154:	00005097          	auipc	ra,0x5
 7002158:	a6c080e7          	jalr	-1428(ra) # 7006bc0 <_ZN4core6result13unwrap_failed17hf6bc9b148a5ba21eE>
 700215c:	c0001073          	unimp

07002160 <_ZN3std9panicking12default_hook28_$u7b$$u7b$closure$u7d$$u7d$17h98caa6a0aed26f78E>:
 7002160:	fa010113          	add	sp,sp,-96
 7002164:	04112e23          	sw	ra,92(sp)
 7002168:	04812c23          	sw	s0,88(sp)
 700216c:	04912a23          	sw	s1,84(sp)
 7002170:	05212823          	sw	s2,80(sp)
 7002174:	05312623          	sw	s3,76(sp)
 7002178:	05412423          	sw	s4,72(sp)
 700217c:	05512223          	sw	s5,68(sp)
 7002180:	00050913          	mv	s2,a0
 7002184:	00052503          	lw	a0,0(a0)
 7002188:	00060493          	mv	s1,a2
 700218c:	00058413          	mv	s0,a1
 7002190:	00492583          	lw	a1,4(s2)
 7002194:	00892603          	lw	a2,8(s2)
 7002198:	02a12423          	sw	a0,40(sp)
 700219c:	07004537          	lui	a0,0x7004
 70021a0:	2ac50513          	add	a0,a0,684 # 70042ac <_ZN44_$LT$$RF$T$u20$as$u20$core..fmt..Display$GT$3fmt17h18726c7fa529f584E>
 70021a4:	02a12623          	sw	a0,44(sp)
 70021a8:	02b12823          	sw	a1,48(sp)
 70021ac:	02a12a23          	sw	a0,52(sp)
 70021b0:	02c12c23          	sw	a2,56(sp)
 70021b4:	07004537          	lui	a0,0x7004
 70021b8:	a9450513          	add	a0,a0,-1388 # 7003a94 <_ZN44_$LT$$RF$T$u20$as$u20$core..fmt..Display$GT$3fmt17h6f360459c204b8a7E>
 70021bc:	02a12e23          	sw	a0,60(sp)
 70021c0:	07007537          	lui	a0,0x7007
 70021c4:	50450513          	add	a0,a0,1284 # 7007504 <.Lanon.31adeef965a1fecf39e1a7a9b10d5c8e.41>
 70021c8:	00a12823          	sw	a0,16(sp)
 70021cc:	00400513          	li	a0,4
 70021d0:	00a12a23          	sw	a0,20(sp)
 70021d4:	00012c23          	sw	zero,24(sp)
 70021d8:	02810513          	add	a0,sp,40
 70021dc:	0244aa03          	lw	s4,36(s1)
 70021e0:	02a12023          	sw	a0,32(sp)
 70021e4:	00300a93          	li	s5,3
 70021e8:	03512223          	sw	s5,36(sp)
 70021ec:	00810513          	add	a0,sp,8
 70021f0:	01010613          	add	a2,sp,16
 70021f4:	00040593          	mv	a1,s0
 70021f8:	000a00e7          	jalr	s4
 70021fc:	00814503          	lbu	a0,8(sp)
 7002200:	05551463          	bne	a0,s5,7002248 <_ZN3std9panicking12default_hook28_$u7b$$u7b$closure$u7d$$u7d$17h98caa6a0aed26f78E+0xe8>
 7002204:	00c12983          	lw	s3,12(sp)
 7002208:	0049a583          	lw	a1,4(s3)
 700220c:	0009a503          	lw	a0,0(s3)
 7002210:	0005a583          	lw	a1,0(a1)
 7002214:	000580e7          	jalr	a1
 7002218:	0049a503          	lw	a0,4(s3)
 700221c:	00452583          	lw	a1,4(a0)
 7002220:	00058a63          	beqz	a1,7002234 <_ZN3std9panicking12default_hook28_$u7b$$u7b$closure$u7d$$u7d$17h98caa6a0aed26f78E+0xd4>
 7002224:	00852603          	lw	a2,8(a0)
 7002228:	0009a503          	lw	a0,0(s3)
 700222c:	ffffe097          	auipc	ra,0xffffe
 7002230:	400080e7          	jalr	1024(ra) # 700062c <__rust_dealloc>
 7002234:	00c00593          	li	a1,12
 7002238:	00400613          	li	a2,4
 700223c:	00098513          	mv	a0,s3
 7002240:	ffffe097          	auipc	ra,0xffffe
 7002244:	3ec080e7          	jalr	1004(ra) # 700062c <__rust_dealloc>
 7002248:	00c92503          	lw	a0,12(s2)
 700224c:	00054503          	lbu	a0,0(a0)
 7002250:	11550063          	beq	a0,s5,7002350 <_ZN3std9panicking12default_hook28_$u7b$$u7b$closure$u7d$$u7d$17h98caa6a0aed26f78E+0x1f0>
 7002254:	00200593          	li	a1,2
 7002258:	02b50a63          	beq	a0,a1,700228c <_ZN3std9panicking12default_hook28_$u7b$$u7b$closure$u7d$$u7d$17h98caa6a0aed26f78E+0x12c>
 700225c:	00100593          	li	a1,1
 7002260:	08b51463          	bne	a0,a1,70022e8 <_ZN3std9panicking12default_hook28_$u7b$$u7b$closure$u7d$$u7d$17h98caa6a0aed26f78E+0x188>
 7002264:	02810513          	add	a0,sp,40
 7002268:	00100693          	li	a3,1
 700226c:	00040593          	mv	a1,s0
 7002270:	00048613          	mv	a2,s1
 7002274:	00001097          	auipc	ra,0x1
 7002278:	068080e7          	jalr	104(ra) # 70032dc <_ZN3std10sys_common9backtrace5print17hade71476ee17ba10E>
 700227c:	02814503          	lbu	a0,40(sp)
 7002280:	00300593          	li	a1,3
 7002284:	08b50463          	beq	a0,a1,700230c <_ZN3std9panicking12default_hook28_$u7b$$u7b$closure$u7d$$u7d$17h98caa6a0aed26f78E+0x1ac>
 7002288:	0c80006f          	j	7002350 <_ZN3std9panicking12default_hook28_$u7b$$u7b$closure$u7d$$u7d$17h98caa6a0aed26f78E+0x1f0>
 700228c:	000805b7          	lui	a1,0x80
 7002290:	0295c603          	lbu	a2,41(a1) # 80029 <_ZN3std9panicking12default_hook28_$u7b$$u7b$closure$u7d$$u7d$11FIRST_PANIC17h49a2a15698028f46E.0>
 7002294:	00100513          	li	a0,1
 7002298:	02a584a3          	sb	a0,41(a1)
 700229c:	0a061a63          	bnez	a2,7002350 <_ZN3std9panicking12default_hook28_$u7b$$u7b$closure$u7d$$u7d$17h98caa6a0aed26f78E+0x1f0>
 70022a0:	070075b7          	lui	a1,0x7007
 70022a4:	57458593          	add	a1,a1,1396 # 7007574 <.Lanon.31adeef965a1fecf39e1a7a9b10d5c8e.43>
 70022a8:	02b12423          	sw	a1,40(sp)
 70022ac:	02a12623          	sw	a0,44(sp)
 70022b0:	02012823          	sw	zero,48(sp)
 70022b4:	07007537          	lui	a0,0x7007
 70022b8:	35c50513          	add	a0,a0,860 # 700735c <.Lanon.31adeef965a1fecf39e1a7a9b10d5c8e.19>
 70022bc:	02a12c23          	sw	a0,56(sp)
 70022c0:	02012e23          	sw	zero,60(sp)
 70022c4:	01010513          	add	a0,sp,16
 70022c8:	02810613          	add	a2,sp,40
 70022cc:	00040593          	mv	a1,s0
 70022d0:	000a00e7          	jalr	s4
 70022d4:	01014503          	lbu	a0,16(sp)
 70022d8:	00300593          	li	a1,3
 70022dc:	06b51a63          	bne	a0,a1,7002350 <_ZN3std9panicking12default_hook28_$u7b$$u7b$closure$u7d$$u7d$17h98caa6a0aed26f78E+0x1f0>
 70022e0:	01412403          	lw	s0,20(sp)
 70022e4:	02c0006f          	j	7002310 <_ZN3std9panicking12default_hook28_$u7b$$u7b$closure$u7d$$u7d$17h98caa6a0aed26f78E+0x1b0>
 70022e8:	02810513          	add	a0,sp,40
 70022ec:	00040593          	mv	a1,s0
 70022f0:	00048613          	mv	a2,s1
 70022f4:	00000693          	li	a3,0
 70022f8:	00001097          	auipc	ra,0x1
 70022fc:	fe4080e7          	jalr	-28(ra) # 70032dc <_ZN3std10sys_common9backtrace5print17hade71476ee17ba10E>
 7002300:	02814503          	lbu	a0,40(sp)
 7002304:	00300593          	li	a1,3
 7002308:	04b51463          	bne	a0,a1,7002350 <_ZN3std9panicking12default_hook28_$u7b$$u7b$closure$u7d$$u7d$17h98caa6a0aed26f78E+0x1f0>
 700230c:	02c12403          	lw	s0,44(sp)
 7002310:	00442583          	lw	a1,4(s0)
 7002314:	00042503          	lw	a0,0(s0)
 7002318:	0005a583          	lw	a1,0(a1)
 700231c:	000580e7          	jalr	a1
 7002320:	00442503          	lw	a0,4(s0)
 7002324:	00452583          	lw	a1,4(a0)
 7002328:	00058a63          	beqz	a1,700233c <_ZN3std9panicking12default_hook28_$u7b$$u7b$closure$u7d$$u7d$17h98caa6a0aed26f78E+0x1dc>
 700232c:	00852603          	lw	a2,8(a0)
 7002330:	00042503          	lw	a0,0(s0)
 7002334:	ffffe097          	auipc	ra,0xffffe
 7002338:	2f8080e7          	jalr	760(ra) # 700062c <__rust_dealloc>
 700233c:	00c00593          	li	a1,12
 7002340:	00400613          	li	a2,4
 7002344:	00040513          	mv	a0,s0
 7002348:	ffffe097          	auipc	ra,0xffffe
 700234c:	2e4080e7          	jalr	740(ra) # 700062c <__rust_dealloc>
 7002350:	05c12083          	lw	ra,92(sp)
 7002354:	05812403          	lw	s0,88(sp)
 7002358:	05412483          	lw	s1,84(sp)
 700235c:	05012903          	lw	s2,80(sp)
 7002360:	04c12983          	lw	s3,76(sp)
 7002364:	04812a03          	lw	s4,72(sp)
 7002368:	04412a83          	lw	s5,68(sp)
 700236c:	06010113          	add	sp,sp,96
 7002370:	00008067          	ret

07002374 <rust_begin_unwind>:
 7002374:	fe010113          	add	sp,sp,-32
 7002378:	00112e23          	sw	ra,28(sp)
 700237c:	00812c23          	sw	s0,24(sp)
 7002380:	00912a23          	sw	s1,20(sp)
 7002384:	00050413          	mv	s0,a0
 7002388:	00003097          	auipc	ra,0x3
 700238c:	520080e7          	jalr	1312(ra) # 70058a8 <_ZN4core5panic10panic_info9PanicInfo8location17h016da194399f3e8fE>
 7002390:	02051263          	bnez	a0,70023b4 <rust_begin_unwind+0x40>
 7002394:	07007537          	lui	a0,0x7007
 7002398:	4ac50513          	add	a0,a0,1196 # 70074ac <.Lanon.31adeef965a1fecf39e1a7a9b10d5c8e.36>
 700239c:	070075b7          	lui	a1,0x7007
 70023a0:	58c58613          	add	a2,a1,1420 # 700758c <.Lanon.31adeef965a1fecf39e1a7a9b10d5c8e.45>
 70023a4:	02b00593          	li	a1,43
 70023a8:	00004097          	auipc	ra,0x4
 70023ac:	5fc080e7          	jalr	1532(ra) # 70069a4 <_ZN4core9panicking5panic17h5d0c0b97b225c667E>
 70023b0:	c0001073          	unimp
 70023b4:	00050493          	mv	s1,a0
 70023b8:	00040513          	mv	a0,s0
 70023bc:	00003097          	auipc	ra,0x3
 70023c0:	4e4080e7          	jalr	1252(ra) # 70058a0 <_ZN4core5panic10panic_info9PanicInfo7message17hf150a2730354cba8E>
 70023c4:	02051263          	bnez	a0,70023e8 <rust_begin_unwind+0x74>
 70023c8:	07007537          	lui	a0,0x7007
 70023cc:	4ac50513          	add	a0,a0,1196 # 70074ac <.Lanon.31adeef965a1fecf39e1a7a9b10d5c8e.36>
 70023d0:	070075b7          	lui	a1,0x7007
 70023d4:	57c58613          	add	a2,a1,1404 # 700757c <.Lanon.31adeef965a1fecf39e1a7a9b10d5c8e.44>
 70023d8:	02b00593          	li	a1,43
 70023dc:	00004097          	auipc	ra,0x4
 70023e0:	5c8080e7          	jalr	1480(ra) # 70069a4 <_ZN4core9panicking5panic17h5d0c0b97b225c667E>
 70023e4:	c0001073          	unimp
 70023e8:	00a12423          	sw	a0,8(sp)
 70023ec:	00812623          	sw	s0,12(sp)
 70023f0:	00912823          	sw	s1,16(sp)
 70023f4:	00810513          	add	a0,sp,8
 70023f8:	00001097          	auipc	ra,0x1
 70023fc:	108080e7          	jalr	264(ra) # 7003500 <_ZN3std10sys_common9backtrace26__rust_end_short_backtrace17he1d35fc3f1089e6cE>
 7002400:	c0001073          	unimp

07002404 <_ZN90_$LT$std..panicking..begin_panic_handler..PanicPayload$u20$as$u20$core..panic..BoxMeUp$GT$8take_box17hb309aeacfebff98cE>:
 7002404:	fc010113          	add	sp,sp,-64
 7002408:	02112e23          	sw	ra,60(sp)
 700240c:	02812c23          	sw	s0,56(sp)
 7002410:	02912a23          	sw	s1,52(sp)
 7002414:	00050413          	mv	s0,a0
 7002418:	00452503          	lw	a0,4(a0)
 700241c:	00440493          	add	s1,s0,4
 7002420:	08051063          	bnez	a0,70024a0 <_ZN90_$LT$std..panicking..begin_panic_handler..PanicPayload$u20$as$u20$core..panic..BoxMeUp$GT$8take_box17hb309aeacfebff98cE+0x9c>
 7002424:	00042503          	lw	a0,0(s0)
 7002428:	00100593          	li	a1,1
 700242c:	00b12423          	sw	a1,8(sp)
 7002430:	00012623          	sw	zero,12(sp)
 7002434:	00012823          	sw	zero,16(sp)
 7002438:	00810593          	add	a1,sp,8
 700243c:	00b12a23          	sw	a1,20(sp)
 7002440:	01452583          	lw	a1,20(a0)
 7002444:	02b12623          	sw	a1,44(sp)
 7002448:	01052583          	lw	a1,16(a0)
 700244c:	02b12423          	sw	a1,40(sp)
 7002450:	00c52583          	lw	a1,12(a0)
 7002454:	02b12223          	sw	a1,36(sp)
 7002458:	00852583          	lw	a1,8(a0)
 700245c:	02b12023          	sw	a1,32(sp)
 7002460:	00452583          	lw	a1,4(a0)
 7002464:	00b12e23          	sw	a1,28(sp)
 7002468:	00052503          	lw	a0,0(a0)
 700246c:	00a12c23          	sw	a0,24(sp)
 7002470:	07008537          	lui	a0,0x7008
 7002474:	c9850593          	add	a1,a0,-872 # 7007c98 <anon.e5acf19516f4a9cd5b82bd5981941ef5.1.llvm.13949807993874650229>
 7002478:	01410513          	add	a0,sp,20
 700247c:	01810613          	add	a2,sp,24
 7002480:	00004097          	auipc	ra,0x4
 7002484:	9a8080e7          	jalr	-1624(ra) # 7005e28 <_ZN4core3fmt5write17habccab7204ac24b2E>
 7002488:	01012503          	lw	a0,16(sp)
 700248c:	00c12583          	lw	a1,12(sp)
 7002490:	00812603          	lw	a2,8(sp)
 7002494:	00a4a423          	sw	a0,8(s1)
 7002498:	00b4a223          	sw	a1,4(s1)
 700249c:	00c4a023          	sw	a2,0(s1)
 70024a0:	0084a503          	lw	a0,8(s1)
 70024a4:	0044a583          	lw	a1,4(s1)
 70024a8:	0004a603          	lw	a2,0(s1)
 70024ac:	02a12023          	sw	a0,32(sp)
 70024b0:	00b12e23          	sw	a1,28(sp)
 70024b4:	00c12c23          	sw	a2,24(sp)
 70024b8:	00100513          	li	a0,1
 70024bc:	00a42223          	sw	a0,4(s0)
 70024c0:	00042423          	sw	zero,8(s0)
 70024c4:	00042623          	sw	zero,12(s0)
 70024c8:	00c00513          	li	a0,12
 70024cc:	00400593          	li	a1,4
 70024d0:	ffffe097          	auipc	ra,0xffffe
 70024d4:	154080e7          	jalr	340(ra) # 7000624 <__rust_alloc>
 70024d8:	02050c63          	beqz	a0,7002510 <_ZN90_$LT$std..panicking..begin_panic_handler..PanicPayload$u20$as$u20$core..panic..BoxMeUp$GT$8take_box17hb309aeacfebff98cE+0x10c>
 70024dc:	02012583          	lw	a1,32(sp)
 70024e0:	01c12603          	lw	a2,28(sp)
 70024e4:	00b52423          	sw	a1,8(a0)
 70024e8:	01812683          	lw	a3,24(sp)
 70024ec:	00c52223          	sw	a2,4(a0)
 70024f0:	070075b7          	lui	a1,0x7007
 70024f4:	59c58593          	add	a1,a1,1436 # 700759c <.Lanon.31adeef965a1fecf39e1a7a9b10d5c8e.46>
 70024f8:	00d52023          	sw	a3,0(a0)
 70024fc:	03c12083          	lw	ra,60(sp)
 7002500:	03812403          	lw	s0,56(sp)
 7002504:	03412483          	lw	s1,52(sp)
 7002508:	04010113          	add	sp,sp,64
 700250c:	00008067          	ret
 7002510:	00c00513          	li	a0,12
 7002514:	00400593          	li	a1,4
 7002518:	00003097          	auipc	ra,0x3
 700251c:	e44080e7          	jalr	-444(ra) # 700535c <_ZN5alloc5alloc18handle_alloc_error17hf138f09b4614ca73E>
 7002520:	c0001073          	unimp

07002524 <_ZN90_$LT$std..panicking..begin_panic_handler..PanicPayload$u20$as$u20$core..panic..BoxMeUp$GT$3get17h58ad0210549ae198E>:
 7002524:	fd010113          	add	sp,sp,-48
 7002528:	02112623          	sw	ra,44(sp)
 700252c:	02812423          	sw	s0,40(sp)
 7002530:	00452583          	lw	a1,4(a0)
 7002534:	00450413          	add	s0,a0,4
 7002538:	08059063          	bnez	a1,70025b8 <_ZN90_$LT$std..panicking..begin_panic_handler..PanicPayload$u20$as$u20$core..panic..BoxMeUp$GT$3get17h58ad0210549ae198E+0x94>
 700253c:	00052503          	lw	a0,0(a0)
 7002540:	00100593          	li	a1,1
 7002544:	00b12023          	sw	a1,0(sp)
 7002548:	00012223          	sw	zero,4(sp)
 700254c:	00012423          	sw	zero,8(sp)
 7002550:	00010593          	mv	a1,sp
 7002554:	00b12623          	sw	a1,12(sp)
 7002558:	01452583          	lw	a1,20(a0)
 700255c:	02b12223          	sw	a1,36(sp)
 7002560:	01052583          	lw	a1,16(a0)
 7002564:	02b12023          	sw	a1,32(sp)
 7002568:	00c52583          	lw	a1,12(a0)
 700256c:	00b12e23          	sw	a1,28(sp)
 7002570:	00852583          	lw	a1,8(a0)
 7002574:	00b12c23          	sw	a1,24(sp)
 7002578:	00452583          	lw	a1,4(a0)
 700257c:	00b12a23          	sw	a1,20(sp)
 7002580:	00052503          	lw	a0,0(a0)
 7002584:	00a12823          	sw	a0,16(sp)
 7002588:	07008537          	lui	a0,0x7008
 700258c:	c9850593          	add	a1,a0,-872 # 7007c98 <anon.e5acf19516f4a9cd5b82bd5981941ef5.1.llvm.13949807993874650229>
 7002590:	00c10513          	add	a0,sp,12
 7002594:	01010613          	add	a2,sp,16
 7002598:	00004097          	auipc	ra,0x4
 700259c:	890080e7          	jalr	-1904(ra) # 7005e28 <_ZN4core3fmt5write17habccab7204ac24b2E>
 70025a0:	00812503          	lw	a0,8(sp)
 70025a4:	00412583          	lw	a1,4(sp)
 70025a8:	00012603          	lw	a2,0(sp)
 70025ac:	00a42423          	sw	a0,8(s0)
 70025b0:	00b42223          	sw	a1,4(s0)
 70025b4:	00c42023          	sw	a2,0(s0)
 70025b8:	07007537          	lui	a0,0x7007
 70025bc:	59c50593          	add	a1,a0,1436 # 700759c <.Lanon.31adeef965a1fecf39e1a7a9b10d5c8e.46>
 70025c0:	00040513          	mv	a0,s0
 70025c4:	02c12083          	lw	ra,44(sp)
 70025c8:	02812403          	lw	s0,40(sp)
 70025cc:	03010113          	add	sp,sp,48
 70025d0:	00008067          	ret

070025d4 <_ZN93_$LT$std..panicking..begin_panic_handler..StrPanicPayload$u20$as$u20$core..panic..BoxMeUp$GT$8take_box17h3f335a8849c03036E>:
 70025d4:	ff010113          	add	sp,sp,-16
 70025d8:	00112623          	sw	ra,12(sp)
 70025dc:	00812423          	sw	s0,8(sp)
 70025e0:	00912223          	sw	s1,4(sp)
 70025e4:	00052483          	lw	s1,0(a0)
 70025e8:	00452403          	lw	s0,4(a0)
 70025ec:	00800513          	li	a0,8
 70025f0:	00400593          	li	a1,4
 70025f4:	ffffe097          	auipc	ra,0xffffe
 70025f8:	030080e7          	jalr	48(ra) # 7000624 <__rust_alloc>
 70025fc:	02050463          	beqz	a0,7002624 <_ZN93_$LT$std..panicking..begin_panic_handler..StrPanicPayload$u20$as$u20$core..panic..BoxMeUp$GT$8take_box17h3f335a8849c03036E+0x50>
 7002600:	00952023          	sw	s1,0(a0)
 7002604:	070075b7          	lui	a1,0x7007
 7002608:	5ac58593          	add	a1,a1,1452 # 70075ac <.Lanon.31adeef965a1fecf39e1a7a9b10d5c8e.47>
 700260c:	00852223          	sw	s0,4(a0)
 7002610:	00c12083          	lw	ra,12(sp)
 7002614:	00812403          	lw	s0,8(sp)
 7002618:	00412483          	lw	s1,4(sp)
 700261c:	01010113          	add	sp,sp,16
 7002620:	00008067          	ret
 7002624:	00800513          	li	a0,8
 7002628:	00400593          	li	a1,4
 700262c:	00003097          	auipc	ra,0x3
 7002630:	d30080e7          	jalr	-720(ra) # 700535c <_ZN5alloc5alloc18handle_alloc_error17hf138f09b4614ca73E>
 7002634:	c0001073          	unimp

07002638 <_ZN93_$LT$std..panicking..begin_panic_handler..StrPanicPayload$u20$as$u20$core..panic..BoxMeUp$GT$3get17he02aefae61d56568E>:
 7002638:	070075b7          	lui	a1,0x7007
 700263c:	5ac58593          	add	a1,a1,1452 # 70075ac <.Lanon.31adeef965a1fecf39e1a7a9b10d5c8e.47>
 7002640:	00008067          	ret

07002644 <_ZN3std9panicking20rust_panic_with_hook17heb15842d85b8ff86E>:
 7002644:	f8010113          	add	sp,sp,-128
 7002648:	06112e23          	sw	ra,124(sp)
 700264c:	06812c23          	sw	s0,120(sp)
 7002650:	06912a23          	sw	s1,116(sp)
 7002654:	07212823          	sw	s2,112(sp)
 7002658:	07312623          	sw	s3,108(sp)
 700265c:	07412423          	sw	s4,104(sp)
 7002660:	07512223          	sw	s5,100(sp)
 7002664:	00080837          	lui	a6,0x80
 7002668:	03482783          	lw	a5,52(a6) # 80034 <_ZN3std9panicking11panic_count18GLOBAL_PANIC_COUNT17h9bef03536075a61aE>
 700266c:	00070413          	mv	s0,a4
 7002670:	00068993          	mv	s3,a3
 7002674:	00060a13          	mv	s4,a2
 7002678:	00050913          	mv	s2,a0
 700267c:	00178513          	add	a0,a5,1
 7002680:	02a82a23          	sw	a0,52(a6)
 7002684:	0a07dc63          	bgez	a5,700273c <_ZN3std9panicking20rust_panic_with_hook17heb15842d85b8ff86E+0xf8>
 7002688:	00179513          	sll	a0,a5,0x1
 700268c:	00155593          	srl	a1,a0,0x1
 7002690:	00200513          	li	a0,2
 7002694:	0eb56e63          	bltu	a0,a1,7002790 <_ZN3std9panicking20rust_panic_with_hook17heb15842d85b8ff86E+0x14c>
 7002698:	070075b7          	lui	a1,0x7007
 700269c:	35c58593          	add	a1,a1,860 # 700735c <.Lanon.31adeef965a1fecf39e1a7a9b10d5c8e.19>
 70026a0:	02b12023          	sw	a1,32(sp)
 70026a4:	070075b7          	lui	a1,0x7007
 70026a8:	5f858593          	add	a1,a1,1528 # 70075f8 <.Lanon.31adeef965a1fecf39e1a7a9b10d5c8e.50>
 70026ac:	02b12223          	sw	a1,36(sp)
 70026b0:	03412423          	sw	s4,40(sp)
 70026b4:	03312623          	sw	s3,44(sp)
 70026b8:	02810823          	sb	s0,48(sp)
 70026bc:	02010593          	add	a1,sp,32
 70026c0:	02b12c23          	sw	a1,56(sp)
 70026c4:	070065b7          	lui	a1,0x7006
 70026c8:	8b858593          	add	a1,a1,-1864 # 70058b8 <_ZN73_$LT$core..panic..panic_info..PanicInfo$u20$as$u20$core..fmt..Display$GT$3fmt17hcc37e585bdb54418E>
 70026cc:	02b12e23          	sw	a1,60(sp)
 70026d0:	06010593          	add	a1,sp,96
 70026d4:	00b12023          	sw	a1,0(sp)
 70026d8:	00400413          	li	s0,4
 70026dc:	00810223          	sb	s0,4(sp)
 70026e0:	070075b7          	lui	a1,0x7007
 70026e4:	63c58593          	add	a1,a1,1596 # 700763c <.Lanon.31adeef965a1fecf39e1a7a9b10d5c8e.52>
 70026e8:	04b12423          	sw	a1,72(sp)
 70026ec:	04a12623          	sw	a0,76(sp)
 70026f0:	04012823          	sw	zero,80(sp)
 70026f4:	03810513          	add	a0,sp,56
 70026f8:	04a12c23          	sw	a0,88(sp)
 70026fc:	00100513          	li	a0,1
 7002700:	04a12e23          	sw	a0,92(sp)
 7002704:	07008537          	lui	a0,0x7008
 7002708:	f6050593          	add	a1,a0,-160 # 7007f60 <anon.9912995c2a2ef8a5d0c3af439f111538.44.llvm.6387882789376083808>
 700270c:	00010513          	mv	a0,sp
 7002710:	04810613          	add	a2,sp,72
 7002714:	00003097          	auipc	ra,0x3
 7002718:	714080e7          	jalr	1812(ra) # 7005e28 <_ZN4core3fmt5write17habccab7204ac24b2E>
 700271c:	00414583          	lbu	a1,4(sp)
 7002720:	14050c63          	beqz	a0,7002878 <_ZN3std9panicking20rust_panic_with_hook17heb15842d85b8ff86E+0x234>
 7002724:	32858263          	beq	a1,s0,7002a48 <_ZN3std9panicking20rust_panic_with_hook17heb15842d85b8ff86E+0x404>
 7002728:	00414503          	lbu	a0,4(sp)
 700272c:	00300593          	li	a1,3
 7002730:	30b51c63          	bne	a0,a1,7002a48 <_ZN3std9panicking20rust_panic_with_hook17heb15842d85b8ff86E+0x404>
 7002734:	00812403          	lw	s0,8(sp)
 7002738:	0c40006f          	j	70027fc <_ZN3std9panicking20rust_panic_with_hook17heb15842d85b8ff86E+0x1b8>
 700273c:	00058493          	mv	s1,a1
 7002740:	00000513          	li	a0,0
 7002744:	00001097          	auipc	ra,0x1
 7002748:	09c080e7          	jalr	156(ra) # 70037e0 <_ZN3std9panicking11panic_count17LOCAL_PANIC_COUNT7__getit17hce72445e52496182E.llvm.14256562575406249000>
 700274c:	02051863          	bnez	a0,700277c <_ZN3std9panicking20rust_panic_with_hook17heb15842d85b8ff86E+0x138>
 7002750:	07008537          	lui	a0,0x7008
 7002754:	cbb50513          	add	a0,a0,-837 # 7007cbb <anon.e5acf19516f4a9cd5b82bd5981941ef5.15.llvm.13949807993874650229>
 7002758:	070085b7          	lui	a1,0x7008
 700275c:	d0458693          	add	a3,a1,-764 # 7007d04 <anon.e5acf19516f4a9cd5b82bd5981941ef5.16.llvm.13949807993874650229>
 7002760:	070085b7          	lui	a1,0x7008
 7002764:	dd858713          	add	a4,a1,-552 # 7007dd8 <anon.e5acf19516f4a9cd5b82bd5981941ef5.18.llvm.13949807993874650229>
 7002768:	04600593          	li	a1,70
 700276c:	06010613          	add	a2,sp,96
 7002770:	00004097          	auipc	ra,0x4
 7002774:	450080e7          	jalr	1104(ra) # 7006bc0 <_ZN4core6result13unwrap_failed17hf6bc9b148a5ba21eE>
 7002778:	c0001073          	unimp
 700277c:	00052583          	lw	a1,0(a0)
 7002780:	00158a93          	add	s5,a1,1
 7002784:	00200593          	li	a1,2
 7002788:	01552023          	sw	s5,0(a0)
 700278c:	1355f663          	bgeu	a1,s5,70028b8 <_ZN3std9panicking20rust_panic_with_hook17heb15842d85b8ff86E+0x274>
 7002790:	06010513          	add	a0,sp,96
 7002794:	02a12023          	sw	a0,32(sp)
 7002798:	00400413          	li	s0,4
 700279c:	02810223          	sb	s0,36(sp)
 70027a0:	07007537          	lui	a0,0x7007
 70027a4:	5f050513          	add	a0,a0,1520 # 70075f0 <.Lanon.31adeef965a1fecf39e1a7a9b10d5c8e.49>
 70027a8:	04a12423          	sw	a0,72(sp)
 70027ac:	00100513          	li	a0,1
 70027b0:	04a12623          	sw	a0,76(sp)
 70027b4:	04012823          	sw	zero,80(sp)
 70027b8:	07007537          	lui	a0,0x7007
 70027bc:	35c50513          	add	a0,a0,860 # 700735c <.Lanon.31adeef965a1fecf39e1a7a9b10d5c8e.19>
 70027c0:	04a12c23          	sw	a0,88(sp)
 70027c4:	04012e23          	sw	zero,92(sp)
 70027c8:	07008537          	lui	a0,0x7008
 70027cc:	f6050593          	add	a1,a0,-160 # 7007f60 <anon.9912995c2a2ef8a5d0c3af439f111538.44.llvm.6387882789376083808>
 70027d0:	02010513          	add	a0,sp,32
 70027d4:	04810613          	add	a2,sp,72
 70027d8:	00003097          	auipc	ra,0x3
 70027dc:	650080e7          	jalr	1616(ra) # 7005e28 <_ZN4core3fmt5write17habccab7204ac24b2E>
 70027e0:	02414583          	lbu	a1,36(sp)
 70027e4:	04050a63          	beqz	a0,7002838 <_ZN3std9panicking20rust_panic_with_hook17heb15842d85b8ff86E+0x1f4>
 70027e8:	26858063          	beq	a1,s0,7002a48 <_ZN3std9panicking20rust_panic_with_hook17heb15842d85b8ff86E+0x404>
 70027ec:	02414503          	lbu	a0,36(sp)
 70027f0:	00300593          	li	a1,3
 70027f4:	24b51a63          	bne	a0,a1,7002a48 <_ZN3std9panicking20rust_panic_with_hook17heb15842d85b8ff86E+0x404>
 70027f8:	02812403          	lw	s0,40(sp)
 70027fc:	00442583          	lw	a1,4(s0)
 7002800:	00042503          	lw	a0,0(s0)
 7002804:	0005a583          	lw	a1,0(a1)
 7002808:	000580e7          	jalr	a1
 700280c:	00442503          	lw	a0,4(s0)
 7002810:	00452583          	lw	a1,4(a0)
 7002814:	00058a63          	beqz	a1,7002828 <_ZN3std9panicking20rust_panic_with_hook17heb15842d85b8ff86E+0x1e4>
 7002818:	00852603          	lw	a2,8(a0)
 700281c:	00042503          	lw	a0,0(s0)
 7002820:	ffffe097          	auipc	ra,0xffffe
 7002824:	e0c080e7          	jalr	-500(ra) # 700062c <__rust_dealloc>
 7002828:	00c00593          	li	a1,12
 700282c:	00400613          	li	a2,4
 7002830:	00040513          	mv	a0,s0
 7002834:	20c0006f          	j	7002a40 <_ZN3std9panicking20rust_panic_with_hook17heb15842d85b8ff86E+0x3fc>
 7002838:	00300513          	li	a0,3
 700283c:	20a59663          	bne	a1,a0,7002a48 <_ZN3std9panicking20rust_panic_with_hook17heb15842d85b8ff86E+0x404>
 7002840:	02812403          	lw	s0,40(sp)
 7002844:	00442583          	lw	a1,4(s0)
 7002848:	00042503          	lw	a0,0(s0)
 700284c:	0005a583          	lw	a1,0(a1)
 7002850:	000580e7          	jalr	a1
 7002854:	00442503          	lw	a0,4(s0)
 7002858:	00452583          	lw	a1,4(a0)
 700285c:	00058a63          	beqz	a1,7002870 <_ZN3std9panicking20rust_panic_with_hook17heb15842d85b8ff86E+0x22c>
 7002860:	00852603          	lw	a2,8(a0)
 7002864:	00042503          	lw	a0,0(s0)
 7002868:	ffffe097          	auipc	ra,0xffffe
 700286c:	dc4080e7          	jalr	-572(ra) # 700062c <__rust_dealloc>
 7002870:	02812503          	lw	a0,40(sp)
 7002874:	1c40006f          	j	7002a38 <_ZN3std9panicking20rust_panic_with_hook17heb15842d85b8ff86E+0x3f4>
 7002878:	00300513          	li	a0,3
 700287c:	1ca59663          	bne	a1,a0,7002a48 <_ZN3std9panicking20rust_panic_with_hook17heb15842d85b8ff86E+0x404>
 7002880:	00812403          	lw	s0,8(sp)
 7002884:	00442583          	lw	a1,4(s0)
 7002888:	00042503          	lw	a0,0(s0)
 700288c:	0005a583          	lw	a1,0(a1)
 7002890:	000580e7          	jalr	a1
 7002894:	00442503          	lw	a0,4(s0)
 7002898:	00452583          	lw	a1,4(a0)
 700289c:	00058a63          	beqz	a1,70028b0 <_ZN3std9panicking20rust_panic_with_hook17heb15842d85b8ff86E+0x26c>
 70028a0:	00852603          	lw	a2,8(a0)
 70028a4:	00042503          	lw	a0,0(s0)
 70028a8:	ffffe097          	auipc	ra,0xffffe
 70028ac:	d84080e7          	jalr	-636(ra) # 700062c <__rust_dealloc>
 70028b0:	00812503          	lw	a0,8(sp)
 70028b4:	1840006f          	j	7002a38 <_ZN3std9panicking20rust_panic_with_hook17heb15842d85b8ff86E+0x3f4>
 70028b8:	00080537          	lui	a0,0x80
 70028bc:	08c52583          	lw	a1,140(a0) # 8008c <_ZN3std9panicking4HOOK17hc34a69cb6aba852fE>
 70028c0:	01412423          	sw	s4,8(sp)
 70028c4:	01312623          	sw	s3,12(sp)
 70028c8:	00810823          	sb	s0,16(sp)
 70028cc:	0205ce63          	bltz	a1,7002908 <_ZN3std9panicking20rust_panic_with_hook17heb15842d85b8ff86E+0x2c4>
 70028d0:	00158593          	add	a1,a1,1
 70028d4:	08b52623          	sw	a1,140(a0)
 70028d8:	08c50513          	add	a0,a0,140
 70028dc:	00852983          	lw	s3,8(a0)
 70028e0:	0104a583          	lw	a1,16(s1)
 70028e4:	00090513          	mv	a0,s2
 70028e8:	000580e7          	jalr	a1
 70028ec:	00a12023          	sw	a0,0(sp)
 70028f0:	00b12223          	sw	a1,4(sp)
 70028f4:	0a099e63          	bnez	s3,70029b0 <_ZN3std9panicking20rust_panic_with_hook17heb15842d85b8ff86E+0x36c>
 70028f8:	00010513          	mv	a0,sp
 70028fc:	fffff097          	auipc	ra,0xfffff
 7002900:	41c080e7          	jalr	1052(ra) # 7001d18 <_ZN3std9panicking12default_hook17h02c6ee80d4a668f9E>
 7002904:	0c80006f          	j	70029cc <_ZN3std9panicking20rust_panic_with_hook17heb15842d85b8ff86E+0x388>
 7002908:	07007537          	lui	a0,0x7007
 700290c:	70450513          	add	a0,a0,1796 # 7007704 <.Lanon.31adeef965a1fecf39e1a7a9b10d5c8e.60>
 7002910:	02a12023          	sw	a0,32(sp)
 7002914:	00100513          	li	a0,1
 7002918:	02a12223          	sw	a0,36(sp)
 700291c:	02012423          	sw	zero,40(sp)
 7002920:	070075b7          	lui	a1,0x7007
 7002924:	35c58593          	add	a1,a1,860 # 700735c <.Lanon.31adeef965a1fecf39e1a7a9b10d5c8e.19>
 7002928:	02b12823          	sw	a1,48(sp)
 700292c:	02012a23          	sw	zero,52(sp)
 7002930:	02010593          	add	a1,sp,32
 7002934:	00b12c23          	sw	a1,24(sp)
 7002938:	070065b7          	lui	a1,0x7006
 700293c:	dcc58593          	add	a1,a1,-564 # 7005dcc <_ZN59_$LT$core..fmt..Arguments$u20$as$u20$core..fmt..Display$GT$3fmt17h267b675037d12153E>
 7002940:	00b12e23          	sw	a1,28(sp)
 7002944:	06010593          	add	a1,sp,96
 7002948:	02b12c23          	sw	a1,56(sp)
 700294c:	00400413          	li	s0,4
 7002950:	02810e23          	sb	s0,60(sp)
 7002954:	070075b7          	lui	a1,0x7007
 7002958:	37458593          	add	a1,a1,884 # 7007374 <.Lanon.31adeef965a1fecf39e1a7a9b10d5c8e.21>
 700295c:	04b12423          	sw	a1,72(sp)
 7002960:	00200593          	li	a1,2
 7002964:	04b12623          	sw	a1,76(sp)
 7002968:	04012823          	sw	zero,80(sp)
 700296c:	01810593          	add	a1,sp,24
 7002970:	04b12c23          	sw	a1,88(sp)
 7002974:	04a12e23          	sw	a0,92(sp)
 7002978:	07008537          	lui	a0,0x7008
 700297c:	f6050593          	add	a1,a0,-160 # 7007f60 <anon.9912995c2a2ef8a5d0c3af439f111538.44.llvm.6387882789376083808>
 7002980:	03810513          	add	a0,sp,56
 7002984:	04810613          	add	a2,sp,72
 7002988:	00003097          	auipc	ra,0x3
 700298c:	4a0080e7          	jalr	1184(ra) # 7005e28 <_ZN4core3fmt5write17habccab7204ac24b2E>
 7002990:	03c14583          	lbu	a1,60(sp)
 7002994:	06050463          	beqz	a0,70029fc <_ZN3std9panicking20rust_panic_with_hook17heb15842d85b8ff86E+0x3b8>
 7002998:	0a858863          	beq	a1,s0,7002a48 <_ZN3std9panicking20rust_panic_with_hook17heb15842d85b8ff86E+0x404>
 700299c:	03c14503          	lbu	a0,60(sp)
 70029a0:	00300593          	li	a1,3
 70029a4:	0ab51263          	bne	a0,a1,7002a48 <_ZN3std9panicking20rust_panic_with_hook17heb15842d85b8ff86E+0x404>
 70029a8:	04012403          	lw	s0,64(sp)
 70029ac:	e51ff06f          	j	70027fc <_ZN3std9panicking20rust_panic_with_hook17heb15842d85b8ff86E+0x1b8>
 70029b0:	00080537          	lui	a0,0x80
 70029b4:	08c50513          	add	a0,a0,140 # 8008c <_ZN3std9panicking4HOOK17hc34a69cb6aba852fE>
 70029b8:	00c52583          	lw	a1,12(a0)
 70029bc:	00852503          	lw	a0,8(a0)
 70029c0:	0145a603          	lw	a2,20(a1)
 70029c4:	00010593          	mv	a1,sp
 70029c8:	000600e7          	jalr	a2
 70029cc:	00080537          	lui	a0,0x80
 70029d0:	08c52583          	lw	a1,140(a0) # 8008c <_ZN3std9panicking4HOOK17hc34a69cb6aba852fE>
 70029d4:	fff58593          	add	a1,a1,-1
 70029d8:	002ab613          	sltiu	a2,s5,2
 70029dc:	00867633          	and	a2,a2,s0
 70029e0:	08b52623          	sw	a1,140(a0)
 70029e4:	06060663          	beqz	a2,7002a50 <_ZN3std9panicking20rust_panic_with_hook17heb15842d85b8ff86E+0x40c>
 70029e8:	00090513          	mv	a0,s2
 70029ec:	00048593          	mv	a1,s1
 70029f0:	00000097          	auipc	ra,0x0
 70029f4:	07c080e7          	jalr	124(ra) # 7002a6c <rust_panic>
 70029f8:	c0001073          	unimp
 70029fc:	00300513          	li	a0,3
 7002a00:	04a59463          	bne	a1,a0,7002a48 <_ZN3std9panicking20rust_panic_with_hook17heb15842d85b8ff86E+0x404>
 7002a04:	04012403          	lw	s0,64(sp)
 7002a08:	00442583          	lw	a1,4(s0)
 7002a0c:	00042503          	lw	a0,0(s0)
 7002a10:	0005a583          	lw	a1,0(a1)
 7002a14:	000580e7          	jalr	a1
 7002a18:	00442503          	lw	a0,4(s0)
 7002a1c:	00452583          	lw	a1,4(a0)
 7002a20:	00058a63          	beqz	a1,7002a34 <_ZN3std9panicking20rust_panic_with_hook17heb15842d85b8ff86E+0x3f0>
 7002a24:	00852603          	lw	a2,8(a0)
 7002a28:	00042503          	lw	a0,0(s0)
 7002a2c:	ffffe097          	auipc	ra,0xffffe
 7002a30:	c00080e7          	jalr	-1024(ra) # 700062c <__rust_dealloc>
 7002a34:	04012503          	lw	a0,64(sp)
 7002a38:	00c00593          	li	a1,12
 7002a3c:	00400613          	li	a2,4
 7002a40:	ffffe097          	auipc	ra,0xffffe
 7002a44:	bec080e7          	jalr	-1044(ra) # 700062c <__rust_dealloc>
 7002a48:	c0001073          	unimp
 7002a4c:	c0001073          	unimp
 7002a50:	06010513          	add	a0,sp,96
 7002a54:	02a12023          	sw	a0,32(sp)
 7002a58:	00400413          	li	s0,4
 7002a5c:	02810223          	sb	s0,36(sp)
 7002a60:	07007537          	lui	a0,0x7007
 7002a64:	67850513          	add	a0,a0,1656 # 7007678 <.Lanon.31adeef965a1fecf39e1a7a9b10d5c8e.54>
 7002a68:	d41ff06f          	j	70027a8 <_ZN3std9panicking20rust_panic_with_hook17heb15842d85b8ff86E+0x164>

07002a6c <rust_panic>:
 7002a6c:	f9010113          	add	sp,sp,-112
 7002a70:	06112623          	sw	ra,108(sp)
 7002a74:	06812423          	sw	s0,104(sp)
 7002a78:	00a12023          	sw	a0,0(sp)
 7002a7c:	00b12223          	sw	a1,4(sp)
 7002a80:	00010513          	mv	a0,sp
 7002a84:	00003097          	auipc	ra,0x3
 7002a88:	88c080e7          	jalr	-1908(ra) # 7005310 <__rust_start_panic>
 7002a8c:	00a12623          	sw	a0,12(sp)
 7002a90:	00c10513          	add	a0,sp,12
 7002a94:	02a12823          	sw	a0,48(sp)
 7002a98:	07007537          	lui	a0,0x7007
 7002a9c:	e1450513          	add	a0,a0,-492 # 7006e14 <_ZN4core3fmt3num3imp52_$LT$impl$u20$core..fmt..Display$u20$for$u20$u32$GT$3fmt17heab9e780deef2c77E>
 7002aa0:	02a12a23          	sw	a0,52(sp)
 7002aa4:	07007537          	lui	a0,0x7007
 7002aa8:	6e050513          	add	a0,a0,1760 # 70076e0 <.Lanon.31adeef965a1fecf39e1a7a9b10d5c8e.58>
 7002aac:	00a12c23          	sw	a0,24(sp)
 7002ab0:	00100513          	li	a0,1
 7002ab4:	00a12e23          	sw	a0,28(sp)
 7002ab8:	02012023          	sw	zero,32(sp)
 7002abc:	03010593          	add	a1,sp,48
 7002ac0:	02b12423          	sw	a1,40(sp)
 7002ac4:	02a12623          	sw	a0,44(sp)
 7002ac8:	01810593          	add	a1,sp,24
 7002acc:	00b12823          	sw	a1,16(sp)
 7002ad0:	070065b7          	lui	a1,0x7006
 7002ad4:	dcc58593          	add	a1,a1,-564 # 7005dcc <_ZN59_$LT$core..fmt..Arguments$u20$as$u20$core..fmt..Display$GT$3fmt17h267b675037d12153E>
 7002ad8:	00b12a23          	sw	a1,20(sp)
 7002adc:	06010593          	add	a1,sp,96
 7002ae0:	02b12c23          	sw	a1,56(sp)
 7002ae4:	00400413          	li	s0,4
 7002ae8:	02810e23          	sb	s0,60(sp)
 7002aec:	070075b7          	lui	a1,0x7007
 7002af0:	37458593          	add	a1,a1,884 # 7007374 <.Lanon.31adeef965a1fecf39e1a7a9b10d5c8e.21>
 7002af4:	04b12423          	sw	a1,72(sp)
 7002af8:	00200593          	li	a1,2
 7002afc:	04b12623          	sw	a1,76(sp)
 7002b00:	04012823          	sw	zero,80(sp)
 7002b04:	01010593          	add	a1,sp,16
 7002b08:	04b12c23          	sw	a1,88(sp)
 7002b0c:	04a12e23          	sw	a0,92(sp)
 7002b10:	07008537          	lui	a0,0x7008
 7002b14:	f6050593          	add	a1,a0,-160 # 7007f60 <anon.9912995c2a2ef8a5d0c3af439f111538.44.llvm.6387882789376083808>
 7002b18:	03810513          	add	a0,sp,56
 7002b1c:	04810613          	add	a2,sp,72
 7002b20:	00003097          	auipc	ra,0x3
 7002b24:	308080e7          	jalr	776(ra) # 7005e28 <_ZN4core3fmt5write17habccab7204ac24b2E>
 7002b28:	03c14583          	lbu	a1,60(sp)
 7002b2c:	04050a63          	beqz	a0,7002b80 <rust_panic+0x114>
 7002b30:	08858e63          	beq	a1,s0,7002bcc <rust_panic+0x160>
 7002b34:	03c14503          	lbu	a0,60(sp)
 7002b38:	00300593          	li	a1,3
 7002b3c:	08b51863          	bne	a0,a1,7002bcc <rust_panic+0x160>
 7002b40:	04012403          	lw	s0,64(sp)
 7002b44:	00442583          	lw	a1,4(s0)
 7002b48:	00042503          	lw	a0,0(s0)
 7002b4c:	0005a583          	lw	a1,0(a1)
 7002b50:	000580e7          	jalr	a1
 7002b54:	00442503          	lw	a0,4(s0)
 7002b58:	00452583          	lw	a1,4(a0)
 7002b5c:	00058a63          	beqz	a1,7002b70 <rust_panic+0x104>
 7002b60:	00852603          	lw	a2,8(a0)
 7002b64:	00042503          	lw	a0,0(s0)
 7002b68:	ffffe097          	auipc	ra,0xffffe
 7002b6c:	ac4080e7          	jalr	-1340(ra) # 700062c <__rust_dealloc>
 7002b70:	00c00593          	li	a1,12
 7002b74:	00400613          	li	a2,4
 7002b78:	00040513          	mv	a0,s0
 7002b7c:	0480006f          	j	7002bc4 <rust_panic+0x158>
 7002b80:	00300513          	li	a0,3
 7002b84:	04a59463          	bne	a1,a0,7002bcc <rust_panic+0x160>
 7002b88:	04012403          	lw	s0,64(sp)
 7002b8c:	00442583          	lw	a1,4(s0)
 7002b90:	00042503          	lw	a0,0(s0)
 7002b94:	0005a583          	lw	a1,0(a1)
 7002b98:	000580e7          	jalr	a1
 7002b9c:	00442503          	lw	a0,4(s0)
 7002ba0:	00452583          	lw	a1,4(a0)
 7002ba4:	00058a63          	beqz	a1,7002bb8 <rust_panic+0x14c>
 7002ba8:	00852603          	lw	a2,8(a0)
 7002bac:	00042503          	lw	a0,0(s0)
 7002bb0:	ffffe097          	auipc	ra,0xffffe
 7002bb4:	a7c080e7          	jalr	-1412(ra) # 700062c <__rust_dealloc>
 7002bb8:	04012503          	lw	a0,64(sp)
 7002bbc:	00c00593          	li	a1,12
 7002bc0:	00400613          	li	a2,4
 7002bc4:	ffffe097          	auipc	ra,0xffffe
 7002bc8:	a68080e7          	jalr	-1432(ra) # 700062c <__rust_dealloc>
 7002bcc:	c0001073          	unimp
 7002bd0:	c0001073          	unimp

07002bd4 <_ZN5alloc7raw_vec11finish_grow17haf4e4f69c085f82fE.llvm.11684207183902173254>:
 7002bd4:	ff010113          	add	sp,sp,-16
 7002bd8:	00112623          	sw	ra,12(sp)
 7002bdc:	00812423          	sw	s0,8(sp)
 7002be0:	00912223          	sw	s1,4(sp)
 7002be4:	01212023          	sw	s2,0(sp)
 7002be8:	00058493          	mv	s1,a1
 7002bec:	00050413          	mv	s0,a0
 7002bf0:	04060063          	beqz	a2,7002c30 <_ZN5alloc7raw_vec11finish_grow17haf4e4f69c085f82fE.llvm.11684207183902173254+0x5c>
 7002bf4:	0404c063          	bltz	s1,7002c34 <_ZN5alloc7raw_vec11finish_grow17haf4e4f69c085f82fE.llvm.11684207183902173254+0x60>
 7002bf8:	00060913          	mv	s2,a2
 7002bfc:	0086a503          	lw	a0,8(a3) # 7000008 <.Lpcrel_hi1>
 7002c00:	04050063          	beqz	a0,7002c40 <_ZN5alloc7raw_vec11finish_grow17haf4e4f69c085f82fE.llvm.11684207183902173254+0x6c>
 7002c04:	0046a583          	lw	a1,4(a3)
 7002c08:	02058c63          	beqz	a1,7002c40 <_ZN5alloc7raw_vec11finish_grow17haf4e4f69c085f82fE.llvm.11684207183902173254+0x6c>
 7002c0c:	0006a503          	lw	a0,0(a3)
 7002c10:	00090613          	mv	a2,s2
 7002c14:	00048693          	mv	a3,s1
 7002c18:	ffffe097          	auipc	ra,0xffffe
 7002c1c:	a1c080e7          	jalr	-1508(ra) # 7000634 <__rust_realloc>
 7002c20:	02051c63          	bnez	a0,7002c58 <_ZN5alloc7raw_vec11finish_grow17haf4e4f69c085f82fE.llvm.11684207183902173254+0x84>
 7002c24:	00942223          	sw	s1,4(s0)
 7002c28:	01242423          	sw	s2,8(s0)
 7002c2c:	00c0006f          	j	7002c38 <_ZN5alloc7raw_vec11finish_grow17haf4e4f69c085f82fE.llvm.11684207183902173254+0x64>
 7002c30:	00942223          	sw	s1,4(s0)
 7002c34:	00042423          	sw	zero,8(s0)
 7002c38:	00100593          	li	a1,1
 7002c3c:	0280006f          	j	7002c64 <_ZN5alloc7raw_vec11finish_grow17haf4e4f69c085f82fE.llvm.11684207183902173254+0x90>
 7002c40:	04048063          	beqz	s1,7002c80 <_ZN5alloc7raw_vec11finish_grow17haf4e4f69c085f82fE.llvm.11684207183902173254+0xac>
 7002c44:	00048513          	mv	a0,s1
 7002c48:	00090593          	mv	a1,s2
 7002c4c:	ffffe097          	auipc	ra,0xffffe
 7002c50:	9d8080e7          	jalr	-1576(ra) # 7000624 <__rust_alloc>
 7002c54:	fc0508e3          	beqz	a0,7002c24 <_ZN5alloc7raw_vec11finish_grow17haf4e4f69c085f82fE.llvm.11684207183902173254+0x50>
 7002c58:	00000593          	li	a1,0
 7002c5c:	00a42223          	sw	a0,4(s0)
 7002c60:	00942423          	sw	s1,8(s0)
 7002c64:	00b42023          	sw	a1,0(s0)
 7002c68:	00c12083          	lw	ra,12(sp)
 7002c6c:	00812403          	lw	s0,8(sp)
 7002c70:	00412483          	lw	s1,4(sp)
 7002c74:	00012903          	lw	s2,0(sp)
 7002c78:	01010113          	add	sp,sp,16
 7002c7c:	00008067          	ret
 7002c80:	00090513          	mv	a0,s2
 7002c84:	fc051ae3          	bnez	a0,7002c58 <_ZN5alloc7raw_vec11finish_grow17haf4e4f69c085f82fE.llvm.11684207183902173254+0x84>
 7002c88:	f9dff06f          	j	7002c24 <_ZN5alloc7raw_vec11finish_grow17haf4e4f69c085f82fE.llvm.11684207183902173254+0x50>

07002c8c <_ZN5alloc7raw_vec19RawVec$LT$T$C$A$GT$16reserve_for_push17hbf2177df1888a4f8E>:
 7002c8c:	fd010113          	add	sp,sp,-48
 7002c90:	02112623          	sw	ra,44(sp)
 7002c94:	02812423          	sw	s0,40(sp)
 7002c98:	02912223          	sw	s1,36(sp)
 7002c9c:	00158593          	add	a1,a1,1
 7002ca0:	08058a63          	beqz	a1,7002d34 <_ZN5alloc7raw_vec19RawVec$LT$T$C$A$GT$16reserve_for_push17hbf2177df1888a4f8E+0xa8>
 7002ca4:	00050413          	mv	s0,a0
 7002ca8:	00452503          	lw	a0,4(a0)
 7002cac:	00151493          	sll	s1,a0,0x1
 7002cb0:	0295f863          	bgeu	a1,s1,7002ce0 <_ZN5alloc7raw_vec19RawVec$LT$T$C$A$GT$16reserve_for_push17hbf2177df1888a4f8E+0x54>
 7002cb4:	00800593          	li	a1,8
 7002cb8:	0295fa63          	bgeu	a1,s1,7002cec <_ZN5alloc7raw_vec19RawVec$LT$T$C$A$GT$16reserve_for_push17hbf2177df1888a4f8E+0x60>
 7002cbc:	fff4c593          	not	a1,s1
 7002cc0:	01f5d613          	srl	a2,a1,0x1f
 7002cc4:	02050c63          	beqz	a0,7002cfc <_ZN5alloc7raw_vec19RawVec$LT$T$C$A$GT$16reserve_for_push17hbf2177df1888a4f8E+0x70>
 7002cc8:	00042583          	lw	a1,0(s0)
 7002ccc:	00b12c23          	sw	a1,24(sp)
 7002cd0:	00a12e23          	sw	a0,28(sp)
 7002cd4:	00100513          	li	a0,1
 7002cd8:	02a12023          	sw	a0,32(sp)
 7002cdc:	0240006f          	j	7002d00 <_ZN5alloc7raw_vec19RawVec$LT$T$C$A$GT$16reserve_for_push17hbf2177df1888a4f8E+0x74>
 7002ce0:	00058493          	mv	s1,a1
 7002ce4:	00800593          	li	a1,8
 7002ce8:	fc95eae3          	bltu	a1,s1,7002cbc <_ZN5alloc7raw_vec19RawVec$LT$T$C$A$GT$16reserve_for_push17hbf2177df1888a4f8E+0x30>
 7002cec:	00800493          	li	s1,8
 7002cf0:	fff4c593          	not	a1,s1
 7002cf4:	01f5d613          	srl	a2,a1,0x1f
 7002cf8:	fc0518e3          	bnez	a0,7002cc8 <_ZN5alloc7raw_vec19RawVec$LT$T$C$A$GT$16reserve_for_push17hbf2177df1888a4f8E+0x3c>
 7002cfc:	02012023          	sw	zero,32(sp)
 7002d00:	00810513          	add	a0,sp,8
 7002d04:	01810693          	add	a3,sp,24
 7002d08:	00048593          	mv	a1,s1
 7002d0c:	00000097          	auipc	ra,0x0
 7002d10:	ec8080e7          	jalr	-312(ra) # 7002bd4 <_ZN5alloc7raw_vec11finish_grow17haf4e4f69c085f82fE.llvm.11684207183902173254>
 7002d14:	00812583          	lw	a1,8(sp)
 7002d18:	00c12503          	lw	a0,12(sp)
 7002d1c:	02058263          	beqz	a1,7002d40 <_ZN5alloc7raw_vec19RawVec$LT$T$C$A$GT$16reserve_for_push17hbf2177df1888a4f8E+0xb4>
 7002d20:	01012583          	lw	a1,16(sp)
 7002d24:	80000637          	lui	a2,0x80000
 7002d28:	00160613          	add	a2,a2,1 # 80000001 <anon.811f17354c499ab9db5bac79de70cdc4.0.llvm.3008685313708409704+0x78ff7a0a>
 7002d2c:	00c58e63          	beq	a1,a2,7002d48 <_ZN5alloc7raw_vec19RawVec$LT$T$C$A$GT$16reserve_for_push17hbf2177df1888a4f8E+0xbc>
 7002d30:	02059663          	bnez	a1,7002d5c <_ZN5alloc7raw_vec19RawVec$LT$T$C$A$GT$16reserve_for_push17hbf2177df1888a4f8E+0xd0>
 7002d34:	00002097          	auipc	ra,0x2
 7002d38:	5e4080e7          	jalr	1508(ra) # 7005318 <_ZN5alloc7raw_vec17capacity_overflow17h59e3baefeac9f928E>
 7002d3c:	c0001073          	unimp
 7002d40:	00a42023          	sw	a0,0(s0)
 7002d44:	00942223          	sw	s1,4(s0)
 7002d48:	02c12083          	lw	ra,44(sp)
 7002d4c:	02812403          	lw	s0,40(sp)
 7002d50:	02412483          	lw	s1,36(sp)
 7002d54:	03010113          	add	sp,sp,48
 7002d58:	00008067          	ret
 7002d5c:	00002097          	auipc	ra,0x2
 7002d60:	600080e7          	jalr	1536(ra) # 700535c <_ZN5alloc5alloc18handle_alloc_error17hf138f09b4614ca73E>
 7002d64:	c0001073          	unimp

07002d68 <_ZN5alloc7raw_vec19RawVec$LT$T$C$A$GT$7reserve21do_reserve_and_handle17h28a3fc8174e1241cE>:
 7002d68:	fd010113          	add	sp,sp,-48
 7002d6c:	02112623          	sw	ra,44(sp)
 7002d70:	02812423          	sw	s0,40(sp)
 7002d74:	02912223          	sw	s1,36(sp)
 7002d78:	00c58633          	add	a2,a1,a2
 7002d7c:	08b66a63          	bltu	a2,a1,7002e10 <_ZN5alloc7raw_vec19RawVec$LT$T$C$A$GT$7reserve21do_reserve_and_handle17h28a3fc8174e1241cE+0xa8>
 7002d80:	00050413          	mv	s0,a0
 7002d84:	00452503          	lw	a0,4(a0)
 7002d88:	00151493          	sll	s1,a0,0x1
 7002d8c:	02967863          	bgeu	a2,s1,7002dbc <_ZN5alloc7raw_vec19RawVec$LT$T$C$A$GT$7reserve21do_reserve_and_handle17h28a3fc8174e1241cE+0x54>
 7002d90:	00800593          	li	a1,8
 7002d94:	0295fa63          	bgeu	a1,s1,7002dc8 <_ZN5alloc7raw_vec19RawVec$LT$T$C$A$GT$7reserve21do_reserve_and_handle17h28a3fc8174e1241cE+0x60>
 7002d98:	fff4c593          	not	a1,s1
 7002d9c:	01f5d613          	srl	a2,a1,0x1f
 7002da0:	02050c63          	beqz	a0,7002dd8 <_ZN5alloc7raw_vec19RawVec$LT$T$C$A$GT$7reserve21do_reserve_and_handle17h28a3fc8174e1241cE+0x70>
 7002da4:	00042583          	lw	a1,0(s0)
 7002da8:	00b12c23          	sw	a1,24(sp)
 7002dac:	00a12e23          	sw	a0,28(sp)
 7002db0:	00100513          	li	a0,1
 7002db4:	02a12023          	sw	a0,32(sp)
 7002db8:	0240006f          	j	7002ddc <_ZN5alloc7raw_vec19RawVec$LT$T$C$A$GT$7reserve21do_reserve_and_handle17h28a3fc8174e1241cE+0x74>
 7002dbc:	00060493          	mv	s1,a2
 7002dc0:	00800593          	li	a1,8
 7002dc4:	fc95eae3          	bltu	a1,s1,7002d98 <_ZN5alloc7raw_vec19RawVec$LT$T$C$A$GT$7reserve21do_reserve_and_handle17h28a3fc8174e1241cE+0x30>
 7002dc8:	00800493          	li	s1,8
 7002dcc:	fff4c593          	not	a1,s1
 7002dd0:	01f5d613          	srl	a2,a1,0x1f
 7002dd4:	fc0518e3          	bnez	a0,7002da4 <_ZN5alloc7raw_vec19RawVec$LT$T$C$A$GT$7reserve21do_reserve_and_handle17h28a3fc8174e1241cE+0x3c>
 7002dd8:	02012023          	sw	zero,32(sp)
 7002ddc:	00810513          	add	a0,sp,8
 7002de0:	01810693          	add	a3,sp,24
 7002de4:	00048593          	mv	a1,s1
 7002de8:	00000097          	auipc	ra,0x0
 7002dec:	dec080e7          	jalr	-532(ra) # 7002bd4 <_ZN5alloc7raw_vec11finish_grow17haf4e4f69c085f82fE.llvm.11684207183902173254>
 7002df0:	00812583          	lw	a1,8(sp)
 7002df4:	00c12503          	lw	a0,12(sp)
 7002df8:	02058263          	beqz	a1,7002e1c <_ZN5alloc7raw_vec19RawVec$LT$T$C$A$GT$7reserve21do_reserve_and_handle17h28a3fc8174e1241cE+0xb4>
 7002dfc:	01012583          	lw	a1,16(sp)
 7002e00:	80000637          	lui	a2,0x80000
 7002e04:	00160613          	add	a2,a2,1 # 80000001 <anon.811f17354c499ab9db5bac79de70cdc4.0.llvm.3008685313708409704+0x78ff7a0a>
 7002e08:	00c58e63          	beq	a1,a2,7002e24 <_ZN5alloc7raw_vec19RawVec$LT$T$C$A$GT$7reserve21do_reserve_and_handle17h28a3fc8174e1241cE+0xbc>
 7002e0c:	02059663          	bnez	a1,7002e38 <_ZN5alloc7raw_vec19RawVec$LT$T$C$A$GT$7reserve21do_reserve_and_handle17h28a3fc8174e1241cE+0xd0>
 7002e10:	00002097          	auipc	ra,0x2
 7002e14:	508080e7          	jalr	1288(ra) # 7005318 <_ZN5alloc7raw_vec17capacity_overflow17h59e3baefeac9f928E>
 7002e18:	c0001073          	unimp
 7002e1c:	00a42023          	sw	a0,0(s0)
 7002e20:	00942223          	sw	s1,4(s0)
 7002e24:	02c12083          	lw	ra,44(sp)
 7002e28:	02812403          	lw	s0,40(sp)
 7002e2c:	02412483          	lw	s1,36(sp)
 7002e30:	03010113          	add	sp,sp,48
 7002e34:	00008067          	ret
 7002e38:	00002097          	auipc	ra,0x2
 7002e3c:	524080e7          	jalr	1316(ra) # 700535c <_ZN5alloc5alloc18handle_alloc_error17hf138f09b4614ca73E>
 7002e40:	c0001073          	unimp

07002e44 <_ZN36_$LT$T$u20$as$u20$core..any..Any$GT$7type_id17h6efdb3fb06d956c3E>:
 7002e44:	331f3537          	lui	a0,0x331f3
 7002e48:	a9a50513          	add	a0,a0,-1382 # 331f2a9a <anon.811f17354c499ab9db5bac79de70cdc4.0.llvm.3008685313708409704+0x2c1ea4a3>
 7002e4c:	282745b7          	lui	a1,0x28274
 7002e50:	e7158593          	add	a1,a1,-399 # 28273e71 <anon.811f17354c499ab9db5bac79de70cdc4.0.llvm.3008685313708409704+0x2126b87a>
 7002e54:	00008067          	ret

07002e58 <_ZN4core3ptr47drop_in_place$LT$core..cell..BorrowMutError$GT$17h56c9c403e0e86d8cE.llvm.9006096014459121332>:
 7002e58:	00008067          	ret

07002e5c <_ZN4core3ptr70drop_in_place$LT$std..panicking..begin_panic_handler..PanicPayload$GT$17h756dfdb2da90ec61E.llvm.9006096014459121332>:
 7002e5c:	00050593          	mv	a1,a0
 7002e60:	00452503          	lw	a0,4(a0)
 7002e64:	00050c63          	beqz	a0,7002e7c <_ZN4core3ptr70drop_in_place$LT$std..panicking..begin_panic_handler..PanicPayload$GT$17h756dfdb2da90ec61E.llvm.9006096014459121332+0x20>
 7002e68:	0085a583          	lw	a1,8(a1)
 7002e6c:	00058863          	beqz	a1,7002e7c <_ZN4core3ptr70drop_in_place$LT$std..panicking..begin_panic_handler..PanicPayload$GT$17h756dfdb2da90ec61E.llvm.9006096014459121332+0x20>
 7002e70:	00100613          	li	a2,1
 7002e74:	ffffd317          	auipc	t1,0xffffd
 7002e78:	7b830067          	jr	1976(t1) # 700062c <__rust_dealloc>
 7002e7c:	00008067          	ret

07002e80 <_ZN4core3ptr88drop_in_place$LT$std..io..Write..write_fmt..Adapter$LT$alloc..vec..Vec$LT$u8$GT$$GT$$GT$17h6a115e993ca80286E.llvm.9006096014459121332>:
 7002e80:	ff010113          	add	sp,sp,-16
 7002e84:	00112623          	sw	ra,12(sp)
 7002e88:	00812423          	sw	s0,8(sp)
 7002e8c:	00912223          	sw	s1,4(sp)
 7002e90:	00050413          	mv	s0,a0
 7002e94:	00454503          	lbu	a0,4(a0)
 7002e98:	00300593          	li	a1,3
 7002e9c:	04b51c63          	bne	a0,a1,7002ef4 <_ZN4core3ptr88drop_in_place$LT$std..io..Write..write_fmt..Adapter$LT$alloc..vec..Vec$LT$u8$GT$$GT$$GT$17h6a115e993ca80286E.llvm.9006096014459121332+0x74>
 7002ea0:	00842483          	lw	s1,8(s0)
 7002ea4:	0044a583          	lw	a1,4(s1)
 7002ea8:	0004a503          	lw	a0,0(s1)
 7002eac:	0005a583          	lw	a1,0(a1)
 7002eb0:	000580e7          	jalr	a1
 7002eb4:	0044a503          	lw	a0,4(s1)
 7002eb8:	00452583          	lw	a1,4(a0)
 7002ebc:	00058a63          	beqz	a1,7002ed0 <_ZN4core3ptr88drop_in_place$LT$std..io..Write..write_fmt..Adapter$LT$alloc..vec..Vec$LT$u8$GT$$GT$$GT$17h6a115e993ca80286E.llvm.9006096014459121332+0x50>
 7002ec0:	00852603          	lw	a2,8(a0)
 7002ec4:	0004a503          	lw	a0,0(s1)
 7002ec8:	ffffd097          	auipc	ra,0xffffd
 7002ecc:	764080e7          	jalr	1892(ra) # 700062c <__rust_dealloc>
 7002ed0:	00842503          	lw	a0,8(s0)
 7002ed4:	00c00593          	li	a1,12
 7002ed8:	00400613          	li	a2,4
 7002edc:	00c12083          	lw	ra,12(sp)
 7002ee0:	00812403          	lw	s0,8(sp)
 7002ee4:	00412483          	lw	s1,4(sp)
 7002ee8:	01010113          	add	sp,sp,16
 7002eec:	ffffd317          	auipc	t1,0xffffd
 7002ef0:	74030067          	jr	1856(t1) # 700062c <__rust_dealloc>
 7002ef4:	00c12083          	lw	ra,12(sp)
 7002ef8:	00812403          	lw	s0,8(sp)
 7002efc:	00412483          	lw	s1,4(sp)
 7002f00:	01010113          	add	sp,sp,16
 7002f04:	00008067          	ret

07002f08 <_ZN3std2io5Write18write_all_vectored17h53672f7411a2da64E>:
 7002f08:	fa010113          	add	sp,sp,-96
 7002f0c:	04112e23          	sw	ra,92(sp)
 7002f10:	04812c23          	sw	s0,88(sp)
 7002f14:	04912a23          	sw	s1,84(sp)
 7002f18:	05212823          	sw	s2,80(sp)
 7002f1c:	05312623          	sw	s3,76(sp)
 7002f20:	05412423          	sw	s4,72(sp)
 7002f24:	05512223          	sw	s5,68(sp)
 7002f28:	05612023          	sw	s6,64(sp)
 7002f2c:	03712e23          	sw	s7,60(sp)
 7002f30:	03812c23          	sw	s8,56(sp)
 7002f34:	03912a23          	sw	s9,52(sp)
 7002f38:	03a12823          	sw	s10,48(sp)
 7002f3c:	03b12623          	sw	s11,44(sp)
 7002f40:	00a12623          	sw	a0,12(sp)
 7002f44:	1a068263          	beqz	a3,70030e8 <_ZN3std2io5Write18write_all_vectored17h53672f7411a2da64E+0x1e0>
 7002f48:	00058493          	mv	s1,a1
 7002f4c:	00000513          	li	a0,0
 7002f50:	200005b7          	lui	a1,0x20000
 7002f54:	fff58b93          	add	s7,a1,-1 # 1fffffff <anon.811f17354c499ab9db5bac79de70cdc4.0.llvm.3008685313708409704+0x18ff7a08>
 7002f58:	fff68593          	add	a1,a3,-1
 7002f5c:	0175f5b3          	and	a1,a1,s7
 7002f60:	00158593          	add	a1,a1,1
 7002f64:	00369713          	sll	a4,a3,0x3
 7002f68:	00460793          	add	a5,a2,4
 7002f6c:	0007a803          	lw	a6,0(a5)
 7002f70:	00081c63          	bnez	a6,7002f88 <_ZN3std2io5Write18write_all_vectored17h53672f7411a2da64E+0x80>
 7002f74:	00150513          	add	a0,a0,1
 7002f78:	ff870713          	add	a4,a4,-8
 7002f7c:	00878793          	add	a5,a5,8
 7002f80:	fe0716e3          	bnez	a4,7002f6c <_ZN3std2io5Write18write_all_vectored17h53672f7411a2da64E+0x64>
 7002f84:	00058513          	mv	a0,a1
 7002f88:	22a6ea63          	bltu	a3,a0,70031bc <_ZN3std2io5Write18write_all_vectored17h53672f7411a2da64E+0x2b4>
 7002f8c:	40a68933          	sub	s2,a3,a0
 7002f90:	14090c63          	beqz	s2,70030e8 <_ZN3std2io5Write18write_all_vectored17h53672f7411a2da64E+0x1e0>
 7002f94:	00351513          	sll	a0,a0,0x3
 7002f98:	00a60633          	add	a2,a2,a0
 7002f9c:	0100006f          	j	7002fac <_ZN3std2io5Write18write_all_vectored17h53672f7411a2da64E+0xa4>
 7002fa0:	1cd99263          	bne	s3,a3,7003164 <_ZN3std2io5Write18write_all_vectored17h53672f7411a2da64E+0x25c>
 7002fa4:	40a90933          	sub	s2,s2,a0
 7002fa8:	14090063          	beqz	s2,70030e8 <_ZN3std2io5Write18write_all_vectored17h53672f7411a2da64E+0x1e0>
 7002fac:	00000993          	li	s3,0
 7002fb0:	00060413          	mv	s0,a2
 7002fb4:	00391c93          	sll	s9,s2,0x3
 7002fb8:	00460d13          	add	s10,a2,4
 7002fbc:	01960db3          	add	s11,a2,s9
 7002fc0:	000c8513          	mv	a0,s9
 7002fc4:	000d0593          	mv	a1,s10
 7002fc8:	0005a603          	lw	a2,0(a1)
 7002fcc:	013609b3          	add	s3,a2,s3
 7002fd0:	ff850513          	add	a0,a0,-8
 7002fd4:	00858593          	add	a1,a1,8
 7002fd8:	fe0518e3          	bnez	a0,7002fc8 <_ZN3std2io5Write18write_all_vectored17h53672f7411a2da64E+0xc0>
 7002fdc:	0084a583          	lw	a1,8(s1)
 7002fe0:	0044a503          	lw	a0,4(s1)
 7002fe4:	40b50533          	sub	a0,a0,a1
 7002fe8:	0f356663          	bltu	a0,s3,70030d4 <_ZN3std2io5Write18write_all_vectored17h53672f7411a2da64E+0x1cc>
 7002fec:	0084aa03          	lw	s4,8(s1)
 7002ff0:	00040c13          	mv	s8,s0
 7002ff4:	02c0006f          	j	7003020 <_ZN3std2io5Write18write_all_vectored17h53672f7411a2da64E+0x118>
 7002ff8:	0004a503          	lw	a0,0(s1)
 7002ffc:	01450533          	add	a0,a0,s4
 7003000:	000b0593          	mv	a1,s6
 7003004:	000a8613          	mv	a2,s5
 7003008:	ffffe097          	auipc	ra,0xffffe
 700300c:	f24080e7          	jalr	-220(ra) # 7000f2c <memcpy>
 7003010:	015a0a33          	add	s4,s4,s5
 7003014:	008c0c13          	add	s8,s8,8
 7003018:	0144a423          	sw	s4,8(s1)
 700301c:	03bc0a63          	beq	s8,s11,7003050 <_ZN3std2io5Write18write_all_vectored17h53672f7411a2da64E+0x148>
 7003020:	0044a503          	lw	a0,4(s1)
 7003024:	004c2a83          	lw	s5,4(s8)
 7003028:	000c2b03          	lw	s6,0(s8)
 700302c:	41450533          	sub	a0,a0,s4
 7003030:	fd5574e3          	bgeu	a0,s5,7002ff8 <_ZN3std2io5Write18write_all_vectored17h53672f7411a2da64E+0xf0>
 7003034:	00048513          	mv	a0,s1
 7003038:	000a0593          	mv	a1,s4
 700303c:	000a8613          	mv	a2,s5
 7003040:	00000097          	auipc	ra,0x0
 7003044:	d28080e7          	jalr	-728(ra) # 7002d68 <_ZN5alloc7raw_vec19RawVec$LT$T$C$A$GT$7reserve21do_reserve_and_handle17h28a3fc8174e1241cE>
 7003048:	0084aa03          	lw	s4,8(s1)
 700304c:	fadff06f          	j	7002ff8 <_ZN3std2io5Write18write_all_vectored17h53672f7411a2da64E+0xf0>
 7003050:	0e098063          	beqz	s3,7003130 <_ZN3std2io5Write18write_all_vectored17h53672f7411a2da64E+0x228>
 7003054:	00000513          	li	a0,0
 7003058:	00000693          	li	a3,0
 700305c:	017905b3          	add	a1,s2,s7
 7003060:	0175f5b3          	and	a1,a1,s7
 7003064:	00158593          	add	a1,a1,1
 7003068:	000d2603          	lw	a2,0(s10)
 700306c:	00d60633          	add	a2,a2,a3
 7003070:	02c9e063          	bltu	s3,a2,7003090 <_ZN3std2io5Write18write_all_vectored17h53672f7411a2da64E+0x188>
 7003074:	00150513          	add	a0,a0,1
 7003078:	ff8c8c93          	add	s9,s9,-8
 700307c:	008d0d13          	add	s10,s10,8
 7003080:	00060693          	mv	a3,a2
 7003084:	fe0c92e3          	bnez	s9,7003068 <_ZN3std2io5Write18write_all_vectored17h53672f7411a2da64E+0x160>
 7003088:	00060693          	mv	a3,a2
 700308c:	00058513          	mv	a0,a1
 7003090:	0aa96e63          	bltu	s2,a0,700314c <_ZN3std2io5Write18write_all_vectored17h53672f7411a2da64E+0x244>
 7003094:	00351593          	sll	a1,a0,0x3
 7003098:	00b40633          	add	a2,s0,a1
 700309c:	f0a902e3          	beq	s2,a0,7002fa0 <_ZN3std2io5Write18write_all_vectored17h53672f7411a2da64E+0x98>
 70030a0:	00b40733          	add	a4,s0,a1
 70030a4:	00472583          	lw	a1,4(a4)
 70030a8:	40d986b3          	sub	a3,s3,a3
 70030ac:	0ed5ec63          	bltu	a1,a3,70031a4 <_ZN3std2io5Write18write_all_vectored17h53672f7411a2da64E+0x29c>
 70030b0:	00062783          	lw	a5,0(a2)
 70030b4:	00470713          	add	a4,a4,4
 70030b8:	00d787b3          	add	a5,a5,a3
 70030bc:	40d585b3          	sub	a1,a1,a3
 70030c0:	00f62023          	sw	a5,0(a2)
 70030c4:	00b72023          	sw	a1,0(a4)
 70030c8:	40a90933          	sub	s2,s2,a0
 70030cc:	ee0910e3          	bnez	s2,7002fac <_ZN3std2io5Write18write_all_vectored17h53672f7411a2da64E+0xa4>
 70030d0:	0180006f          	j	70030e8 <_ZN3std2io5Write18write_all_vectored17h53672f7411a2da64E+0x1e0>
 70030d4:	00048513          	mv	a0,s1
 70030d8:	00098613          	mv	a2,s3
 70030dc:	00000097          	auipc	ra,0x0
 70030e0:	c8c080e7          	jalr	-884(ra) # 7002d68 <_ZN5alloc7raw_vec19RawVec$LT$T$C$A$GT$7reserve21do_reserve_and_handle17h28a3fc8174e1241cE>
 70030e4:	f09ff06f          	j	7002fec <_ZN3std2io5Write18write_all_vectored17h53672f7411a2da64E+0xe4>
 70030e8:	00400513          	li	a0,4
 70030ec:	00c12583          	lw	a1,12(sp)
 70030f0:	00a58023          	sb	a0,0(a1)
 70030f4:	05c12083          	lw	ra,92(sp)
 70030f8:	05812403          	lw	s0,88(sp)
 70030fc:	05412483          	lw	s1,84(sp)
 7003100:	05012903          	lw	s2,80(sp)
 7003104:	04c12983          	lw	s3,76(sp)
 7003108:	04812a03          	lw	s4,72(sp)
 700310c:	04412a83          	lw	s5,68(sp)
 7003110:	04012b03          	lw	s6,64(sp)
 7003114:	03c12b83          	lw	s7,60(sp)
 7003118:	03812c03          	lw	s8,56(sp)
 700311c:	03412c83          	lw	s9,52(sp)
 7003120:	03012d03          	lw	s10,48(sp)
 7003124:	02c12d83          	lw	s11,44(sp)
 7003128:	06010113          	add	sp,sp,96
 700312c:	00008067          	ret
 7003130:	00200513          	li	a0,2
 7003134:	00c12583          	lw	a1,12(sp)
 7003138:	00a5a023          	sw	a0,0(a1)
 700313c:	07008537          	lui	a0,0x7008
 7003140:	86850513          	add	a0,a0,-1944 # 7007868 <.Lanon.bc0186976f2b4070236a5106e84f3a4e.29>
 7003144:	00a5a223          	sw	a0,4(a1)
 7003148:	fadff06f          	j	70030f4 <_ZN3std2io5Write18write_all_vectored17h53672f7411a2da64E+0x1ec>
 700314c:	070075b7          	lui	a1,0x7007
 7003150:	7ec58613          	add	a2,a1,2028 # 70077ec <.Lanon.bc0186976f2b4070236a5106e84f3a4e.23>
 7003154:	00090593          	mv	a1,s2
 7003158:	00003097          	auipc	ra,0x3
 700315c:	bfc080e7          	jalr	-1028(ra) # 7005d54 <_ZN4core5slice5index26slice_start_index_len_fail17h4ce9409af94c9ed9E>
 7003160:	c0001073          	unimp
 7003164:	07008537          	lui	a0,0x7008
 7003168:	83450513          	add	a0,a0,-1996 # 7007834 <.Lanon.bc0186976f2b4070236a5106e84f3a4e.26>
 700316c:	00a12823          	sw	a0,16(sp)
 7003170:	00100513          	li	a0,1
 7003174:	00a12a23          	sw	a0,20(sp)
 7003178:	00012c23          	sw	zero,24(sp)
 700317c:	07007537          	lui	a0,0x7007
 7003180:	70c50513          	add	a0,a0,1804 # 700770c <anon.bc0186976f2b4070236a5106e84f3a4e.5.llvm.9006096014459121332>
 7003184:	02a12023          	sw	a0,32(sp)
 7003188:	02012223          	sw	zero,36(sp)
 700318c:	07008537          	lui	a0,0x7008
 7003190:	83c50593          	add	a1,a0,-1988 # 700783c <.Lanon.bc0186976f2b4070236a5106e84f3a4e.27>
 7003194:	01010513          	add	a0,sp,16
 7003198:	00003097          	auipc	ra,0x3
 700319c:	7d0080e7          	jalr	2000(ra) # 7006968 <_ZN4core9panicking9panic_fmt17hc6785b61922481b6E>
 70031a0:	c0001073          	unimp
 70031a4:	07007537          	lui	a0,0x7007
 70031a8:	7fc50613          	add	a2,a0,2044 # 70077fc <.Lanon.bc0186976f2b4070236a5106e84f3a4e.24>
 70031ac:	00068513          	mv	a0,a3
 70031b0:	00003097          	auipc	ra,0x3
 70031b4:	ba4080e7          	jalr	-1116(ra) # 7005d54 <_ZN4core5slice5index26slice_start_index_len_fail17h4ce9409af94c9ed9E>
 70031b8:	c0001073          	unimp
 70031bc:	070075b7          	lui	a1,0x7007
 70031c0:	7ec58613          	add	a2,a1,2028 # 70077ec <.Lanon.bc0186976f2b4070236a5106e84f3a4e.23>
 70031c4:	00068593          	mv	a1,a3
 70031c8:	00003097          	auipc	ra,0x3
 70031cc:	b8c080e7          	jalr	-1140(ra) # 7005d54 <_ZN4core5slice5index26slice_start_index_len_fail17h4ce9409af94c9ed9E>
 70031d0:	c0001073          	unimp

070031d4 <_ZN3std2io5Write9write_fmt17h8e20f596a435614eE>:
 70031d4:	fc010113          	add	sp,sp,-64
 70031d8:	02112e23          	sw	ra,60(sp)
 70031dc:	02812c23          	sw	s0,56(sp)
 70031e0:	02912a23          	sw	s1,52(sp)
 70031e4:	00050413          	mv	s0,a0
 70031e8:	00b12423          	sw	a1,8(sp)
 70031ec:	01462503          	lw	a0,20(a2)
 70031f0:	01062583          	lw	a1,16(a2)
 70031f4:	00c62683          	lw	a3,12(a2)
 70031f8:	00862703          	lw	a4,8(a2)
 70031fc:	02a12623          	sw	a0,44(sp)
 7003200:	02b12423          	sw	a1,40(sp)
 7003204:	02d12223          	sw	a3,36(sp)
 7003208:	02e12023          	sw	a4,32(sp)
 700320c:	00462503          	lw	a0,4(a2)
 7003210:	00062583          	lw	a1,0(a2)
 7003214:	00400493          	li	s1,4
 7003218:	00910623          	sb	s1,12(sp)
 700321c:	00a12e23          	sw	a0,28(sp)
 7003220:	00b12c23          	sw	a1,24(sp)
 7003224:	07008537          	lui	a0,0x7008
 7003228:	87450593          	add	a1,a0,-1932 # 7007874 <anon.bc0186976f2b4070236a5106e84f3a4e.30.llvm.9006096014459121332>
 700322c:	00810513          	add	a0,sp,8
 7003230:	01810613          	add	a2,sp,24
 7003234:	00003097          	auipc	ra,0x3
 7003238:	bf4080e7          	jalr	-1036(ra) # 7005e28 <_ZN4core3fmt5write17habccab7204ac24b2E>
 700323c:	02050263          	beqz	a0,7003260 <_ZN3std2io5Write9write_fmt17h8e20f596a435614eE+0x8c>
 7003240:	00c14503          	lbu	a0,12(sp)
 7003244:	06951a63          	bne	a0,s1,70032b8 <_ZN3std2io5Write9write_fmt17h8e20f596a435614eE+0xe4>
 7003248:	00200513          	li	a0,2
 700324c:	00a42023          	sw	a0,0(s0)
 7003250:	07008537          	lui	a0,0x7008
 7003254:	89c50513          	add	a0,a0,-1892 # 700789c <anon.bc0186976f2b4070236a5106e84f3a4e.32.llvm.9006096014459121332>
 7003258:	00a42223          	sw	a0,4(s0)
 700325c:	06c0006f          	j	70032c8 <_ZN3std2io5Write9write_fmt17h8e20f596a435614eE+0xf4>
 7003260:	00c14503          	lbu	a0,12(sp)
 7003264:	00300593          	li	a1,3
 7003268:	00940023          	sb	s1,0(s0)
 700326c:	04b51e63          	bne	a0,a1,70032c8 <_ZN3std2io5Write9write_fmt17h8e20f596a435614eE+0xf4>
 7003270:	01012403          	lw	s0,16(sp)
 7003274:	00442583          	lw	a1,4(s0)
 7003278:	00042503          	lw	a0,0(s0)
 700327c:	0005a583          	lw	a1,0(a1)
 7003280:	000580e7          	jalr	a1
 7003284:	00442503          	lw	a0,4(s0)
 7003288:	00452583          	lw	a1,4(a0)
 700328c:	00058a63          	beqz	a1,70032a0 <_ZN3std2io5Write9write_fmt17h8e20f596a435614eE+0xcc>
 7003290:	00852603          	lw	a2,8(a0)
 7003294:	00042503          	lw	a0,0(s0)
 7003298:	ffffd097          	auipc	ra,0xffffd
 700329c:	394080e7          	jalr	916(ra) # 700062c <__rust_dealloc>
 70032a0:	01012503          	lw	a0,16(sp)
 70032a4:	00c00593          	li	a1,12
 70032a8:	00400613          	li	a2,4
 70032ac:	ffffd097          	auipc	ra,0xffffd
 70032b0:	380080e7          	jalr	896(ra) # 700062c <__rust_dealloc>
 70032b4:	0140006f          	j	70032c8 <_ZN3std2io5Write9write_fmt17h8e20f596a435614eE+0xf4>
 70032b8:	01012503          	lw	a0,16(sp)
 70032bc:	00c12583          	lw	a1,12(sp)
 70032c0:	00a42223          	sw	a0,4(s0)
 70032c4:	00b42023          	sw	a1,0(s0)
 70032c8:	03c12083          	lw	ra,60(sp)
 70032cc:	03812403          	lw	s0,56(sp)
 70032d0:	03412483          	lw	s1,52(sp)
 70032d4:	04010113          	add	sp,sp,64
 70032d8:	00008067          	ret

070032dc <_ZN3std10sys_common9backtrace5print17hade71476ee17ba10E>:
 70032dc:	fb010113          	add	sp,sp,-80
 70032e0:	04112623          	sw	ra,76(sp)
 70032e4:	04812423          	sw	s0,72(sp)
 70032e8:	04912223          	sw	s1,68(sp)
 70032ec:	05212023          	sw	s2,64(sp)
 70032f0:	03312e23          	sw	s3,60(sp)
 70032f4:	03412c23          	sw	s4,56(sp)
 70032f8:	03512a23          	sw	s5,52(sp)
 70032fc:	00080737          	lui	a4,0x80
 7003300:	02a74783          	lbu	a5,42(a4) # 8002a <_ZN3std10sys_common9backtrace4lock4LOCK17h1bec61bf73b6c5eeE.llvm.9006096014459121332>
 7003304:	00050913          	mv	s2,a0
 7003308:	0017f513          	and	a0,a5,1
 700330c:	00a10423          	sb	a0,8(sp)
 7003310:	00100413          	li	s0,1
 7003314:	02870523          	sb	s0,42(a4)
 7003318:	0e051263          	bnez	a0,70033fc <_ZN3std10sys_common9backtrace5print17hade71476ee17ba10E+0x120>
 700331c:	00068993          	mv	s3,a3
 7003320:	00060a13          	mv	s4,a2
 7003324:	00058493          	mv	s1,a1
 7003328:	00080537          	lui	a0,0x80
 700332c:	03452503          	lw	a0,52(a0) # 80034 <_ZN3std9panicking11panic_count18GLOBAL_PANIC_COUNT17h9bef03536075a61aE>
 7003330:	800005b7          	lui	a1,0x80000
 7003334:	fff58a93          	add	s5,a1,-1 # 7fffffff <anon.811f17354c499ab9db5bac79de70cdc4.0.llvm.3008685313708409704+0x78ff7a08>
 7003338:	01557533          	and	a0,a0,s5
 700333c:	08051a63          	bnez	a0,70033d0 <_ZN3std10sys_common9backtrace5print17hade71476ee17ba10E+0xf4>
 7003340:	024a2683          	lw	a3,36(s4)
 7003344:	01310ba3          	sb	s3,23(sp)
 7003348:	01710513          	add	a0,sp,23
 700334c:	00a12423          	sw	a0,8(sp)
 7003350:	07003537          	lui	a0,0x7003
 7003354:	44850513          	add	a0,a0,1096 # 7003448 <_ZN91_$LT$std..sys_common..backtrace.._print..DisplayBacktrace$u20$as$u20$core..fmt..Display$GT$3fmt17ha54cb1accd80ab5dE>
 7003358:	00a12623          	sw	a0,12(sp)
 700335c:	07008537          	lui	a0,0x7008
 7003360:	8a850513          	add	a0,a0,-1880 # 70078a8 <anon.bc0186976f2b4070236a5106e84f3a4e.50.llvm.9006096014459121332>
 7003364:	00a12c23          	sw	a0,24(sp)
 7003368:	00100513          	li	a0,1
 700336c:	00a12e23          	sw	a0,28(sp)
 7003370:	02012023          	sw	zero,32(sp)
 7003374:	00810593          	add	a1,sp,8
 7003378:	02b12423          	sw	a1,40(sp)
 700337c:	02a12623          	sw	a0,44(sp)
 7003380:	01810613          	add	a2,sp,24
 7003384:	00090513          	mv	a0,s2
 7003388:	00048593          	mv	a1,s1
 700338c:	000680e7          	jalr	a3
 7003390:	00040a63          	beqz	s0,70033a4 <_ZN3std10sys_common9backtrace5print17hade71476ee17ba10E+0xc8>
 7003394:	00080537          	lui	a0,0x80
 7003398:	03452503          	lw	a0,52(a0) # 80034 <_ZN3std9panicking11panic_count18GLOBAL_PANIC_COUNT17h9bef03536075a61aE>
 700339c:	01557533          	and	a0,a0,s5
 70033a0:	04051063          	bnez	a0,70033e0 <_ZN3std10sys_common9backtrace5print17hade71476ee17ba10E+0x104>
 70033a4:	00080537          	lui	a0,0x80
 70033a8:	02050523          	sb	zero,42(a0) # 8002a <_ZN3std10sys_common9backtrace4lock4LOCK17h1bec61bf73b6c5eeE.llvm.9006096014459121332>
 70033ac:	04c12083          	lw	ra,76(sp)
 70033b0:	04812403          	lw	s0,72(sp)
 70033b4:	04412483          	lw	s1,68(sp)
 70033b8:	04012903          	lw	s2,64(sp)
 70033bc:	03c12983          	lw	s3,60(sp)
 70033c0:	03812a03          	lw	s4,56(sp)
 70033c4:	03412a83          	lw	s5,52(sp)
 70033c8:	05010113          	add	sp,sp,80
 70033cc:	00008067          	ret
 70033d0:	00000097          	auipc	ra,0x0
 70033d4:	3b0080e7          	jalr	944(ra) # 7003780 <_ZN3std9panicking11panic_count17is_zero_slow_path17hc7714d9f060b0c3aE>
 70033d8:	00050413          	mv	s0,a0
 70033dc:	f65ff06f          	j	7003340 <_ZN3std10sys_common9backtrace5print17hade71476ee17ba10E+0x64>
 70033e0:	00000097          	auipc	ra,0x0
 70033e4:	3a0080e7          	jalr	928(ra) # 7003780 <_ZN3std9panicking11panic_count17is_zero_slow_path17hc7714d9f060b0c3aE>
 70033e8:	fa051ee3          	bnez	a0,70033a4 <_ZN3std10sys_common9backtrace5print17hade71476ee17ba10E+0xc8>
 70033ec:	00080537          	lui	a0,0x80
 70033f0:	00100593          	li	a1,1
 70033f4:	02b505a3          	sb	a1,43(a0) # 8002b <_ZN3std10sys_common9backtrace4lock4LOCK17h1bec61bf73b6c5eeE.llvm.9006096014459121332+0x1>
 70033f8:	fadff06f          	j	70033a4 <_ZN3std10sys_common9backtrace5print17hade71476ee17ba10E+0xc8>
 70033fc:	07008537          	lui	a0,0x7008
 7003400:	a3850513          	add	a0,a0,-1480 # 7007a38 <anon.eff0a5df67630090483337dc173c00d6.102.llvm.17917170917373548271>
 7003404:	00a12c23          	sw	a0,24(sp)
 7003408:	00812e23          	sw	s0,28(sp)
 700340c:	02012023          	sw	zero,32(sp)
 7003410:	07008537          	lui	a0,0x7008
 7003414:	a3450513          	add	a0,a0,-1484 # 7007a34 <anon.eff0a5df67630090483337dc173c00d6.100.llvm.17917170917373548271>
 7003418:	02a12423          	sw	a0,40(sp)
 700341c:	02012623          	sw	zero,44(sp)
 7003420:	07008537          	lui	a0,0x7008
 7003424:	a3450613          	add	a2,a0,-1484 # 7007a34 <anon.eff0a5df67630090483337dc173c00d6.100.llvm.17917170917373548271>
 7003428:	07008537          	lui	a0,0x7008
 700342c:	b1c50713          	add	a4,a0,-1252 # 7007b1c <anon.eff0a5df67630090483337dc173c00d6.104.llvm.17917170917373548271>
 7003430:	00810593          	add	a1,sp,8
 7003434:	01810693          	add	a3,sp,24
 7003438:	00000513          	li	a0,0
 700343c:	00000097          	auipc	ra,0x0
 7003440:	2e0080e7          	jalr	736(ra) # 700371c <_ZN4core9panicking13assert_failed17h88b995a5c9938d12E>
 7003444:	c0001073          	unimp

07003448 <_ZN91_$LT$std..sys_common..backtrace.._print..DisplayBacktrace$u20$as$u20$core..fmt..Display$GT$3fmt17ha54cb1accd80ab5dE>:
 7003448:	fd010113          	add	sp,sp,-48
 700344c:	02112623          	sw	ra,44(sp)
 7003450:	02812423          	sw	s0,40(sp)
 7003454:	02912223          	sw	s1,36(sp)
 7003458:	03212023          	sw	s2,32(sp)
 700345c:	00058413          	mv	s0,a1
 7003460:	00054903          	lbu	s2,0(a0)
 7003464:	07008537          	lui	a0,0x7008
 7003468:	8c450513          	add	a0,a0,-1852 # 70078c4 <.Lanon.bc0186976f2b4070236a5106e84f3a4e.66>
 700346c:	00a12423          	sw	a0,8(sp)
 7003470:	00100493          	li	s1,1
 7003474:	00912623          	sw	s1,12(sp)
 7003478:	00012823          	sw	zero,16(sp)
 700347c:	07007537          	lui	a0,0x7007
 7003480:	70c50513          	add	a0,a0,1804 # 700770c <anon.bc0186976f2b4070236a5106e84f3a4e.5.llvm.9006096014459121332>
 7003484:	00a12c23          	sw	a0,24(sp)
 7003488:	00012e23          	sw	zero,28(sp)
 700348c:	00810593          	add	a1,sp,8
 7003490:	00040513          	mv	a0,s0
 7003494:	00003097          	auipc	ra,0x3
 7003498:	314080e7          	jalr	788(ra) # 70067a8 <_ZN4core3fmt9Formatter9write_fmt17h8cb580f8479113a4E>
 700349c:	04051463          	bnez	a0,70034e4 <_ZN91_$LT$std..sys_common..backtrace.._print..DisplayBacktrace$u20$as$u20$core..fmt..Display$GT$3fmt17ha54cb1accd80ab5dE+0x9c>
 70034a0:	04091063          	bnez	s2,70034e0 <_ZN91_$LT$std..sys_common..backtrace.._print..DisplayBacktrace$u20$as$u20$core..fmt..Display$GT$3fmt17ha54cb1accd80ab5dE+0x98>
 70034a4:	07008537          	lui	a0,0x7008
 70034a8:	92450513          	add	a0,a0,-1756 # 7007924 <.Lanon.bc0186976f2b4070236a5106e84f3a4e.69>
 70034ac:	00a12423          	sw	a0,8(sp)
 70034b0:	00100493          	li	s1,1
 70034b4:	00912623          	sw	s1,12(sp)
 70034b8:	00012823          	sw	zero,16(sp)
 70034bc:	07007537          	lui	a0,0x7007
 70034c0:	70c50513          	add	a0,a0,1804 # 700770c <anon.bc0186976f2b4070236a5106e84f3a4e.5.llvm.9006096014459121332>
 70034c4:	00a12c23          	sw	a0,24(sp)
 70034c8:	00012e23          	sw	zero,28(sp)
 70034cc:	00810593          	add	a1,sp,8
 70034d0:	00040513          	mv	a0,s0
 70034d4:	00003097          	auipc	ra,0x3
 70034d8:	2d4080e7          	jalr	724(ra) # 70067a8 <_ZN4core3fmt9Formatter9write_fmt17h8cb580f8479113a4E>
 70034dc:	00051463          	bnez	a0,70034e4 <_ZN91_$LT$std..sys_common..backtrace.._print..DisplayBacktrace$u20$as$u20$core..fmt..Display$GT$3fmt17ha54cb1accd80ab5dE+0x9c>
 70034e0:	00000493          	li	s1,0
 70034e4:	00048513          	mv	a0,s1
 70034e8:	02c12083          	lw	ra,44(sp)
 70034ec:	02812403          	lw	s0,40(sp)
 70034f0:	02412483          	lw	s1,36(sp)
 70034f4:	02012903          	lw	s2,32(sp)
 70034f8:	03010113          	add	sp,sp,48
 70034fc:	00008067          	ret

07003500 <_ZN3std10sys_common9backtrace26__rust_end_short_backtrace17he1d35fc3f1089e6cE>:
 7003500:	ff010113          	add	sp,sp,-16
 7003504:	00852583          	lw	a1,8(a0)
 7003508:	00452603          	lw	a2,4(a0)
 700350c:	00052503          	lw	a0,0(a0)
 7003510:	00b12423          	sw	a1,8(sp)
 7003514:	00c12223          	sw	a2,4(sp)
 7003518:	00a12023          	sw	a0,0(sp)
 700351c:	00010513          	mv	a0,sp
 7003520:	00000097          	auipc	ra,0x0
 7003524:	00c080e7          	jalr	12(ra) # 700352c <_ZN3std9panicking19begin_panic_handler28_$u7b$$u7b$closure$u7d$$u7d$17h7a6c6d2b16c5d83fE.llvm.9006096014459121332>
 7003528:	c0001073          	unimp

0700352c <_ZN3std9panicking19begin_panic_handler28_$u7b$$u7b$closure$u7d$$u7d$17h7a6c6d2b16c5d83fE.llvm.9006096014459121332>:
 700352c:	fe010113          	add	sp,sp,-32
 7003530:	00112e23          	sw	ra,28(sp)
 7003534:	00812c23          	sw	s0,24(sp)
 7003538:	00912a23          	sw	s1,20(sp)
 700353c:	01212823          	sw	s2,16(sp)
 7003540:	00050413          	mv	s0,a0
 7003544:	00052503          	lw	a0,0(a0)
 7003548:	00452603          	lw	a2,4(a0)
 700354c:	01452583          	lw	a1,20(a0)
 7003550:	00100693          	li	a3,1
 7003554:	00d60c63          	beq	a2,a3,700356c <_ZN3std9panicking19begin_panic_handler28_$u7b$$u7b$closure$u7d$$u7d$17h7a6c6d2b16c5d83fE.llvm.9006096014459121332+0x40>
 7003558:	06061063          	bnez	a2,70035b8 <_ZN3std9panicking19begin_panic_handler28_$u7b$$u7b$closure$u7d$$u7d$17h7a6c6d2b16c5d83fE.llvm.9006096014459121332+0x8c>
 700355c:	04059e63          	bnez	a1,70035b8 <_ZN3std9panicking19begin_panic_handler28_$u7b$$u7b$closure$u7d$$u7d$17h7a6c6d2b16c5d83fE.llvm.9006096014459121332+0x8c>
 7003560:	07007537          	lui	a0,0x7007
 7003564:	70c50513          	add	a0,a0,1804 # 700770c <anon.bc0186976f2b4070236a5106e84f3a4e.5.llvm.9006096014459121332>
 7003568:	0140006f          	j	700357c <_ZN3std9panicking19begin_panic_handler28_$u7b$$u7b$closure$u7d$$u7d$17h7a6c6d2b16c5d83fE.llvm.9006096014459121332+0x50>
 700356c:	04059663          	bnez	a1,70035b8 <_ZN3std9panicking19begin_panic_handler28_$u7b$$u7b$closure$u7d$$u7d$17h7a6c6d2b16c5d83fE.llvm.9006096014459121332+0x8c>
 7003570:	00052583          	lw	a1,0(a0)
 7003574:	0005a503          	lw	a0,0(a1)
 7003578:	0045a583          	lw	a1,4(a1)
 700357c:	00442483          	lw	s1,4(s0)
 7003580:	00a12023          	sw	a0,0(sp)
 7003584:	00b12223          	sw	a1,4(sp)
 7003588:	00048513          	mv	a0,s1
 700358c:	00002097          	auipc	ra,0x2
 7003590:	314080e7          	jalr	788(ra) # 70058a0 <_ZN4core5panic10panic_info9PanicInfo7message17hf150a2730354cba8E>
 7003594:	00842403          	lw	s0,8(s0)
 7003598:	00050913          	mv	s2,a0
 700359c:	00048513          	mv	a0,s1
 70035a0:	00002097          	auipc	ra,0x2
 70035a4:	310080e7          	jalr	784(ra) # 70058b0 <_ZN4core5panic10panic_info9PanicInfo10can_unwind17hbeb5b276a93a1a25E>
 70035a8:	00050713          	mv	a4,a0
 70035ac:	07008537          	lui	a0,0x7008
 70035b0:	a2050593          	add	a1,a0,-1504 # 7007a20 <anon.bc0186976f2b4070236a5106e84f3a4e.77.llvm.9006096014459121332>
 70035b4:	03c0006f          	j	70035f0 <_ZN3std9panicking19begin_panic_handler28_$u7b$$u7b$closure$u7d$$u7d$17h7a6c6d2b16c5d83fE.llvm.9006096014459121332+0xc4>
 70035b8:	00442483          	lw	s1,4(s0)
 70035bc:	00a12023          	sw	a0,0(sp)
 70035c0:	00012223          	sw	zero,4(sp)
 70035c4:	00048513          	mv	a0,s1
 70035c8:	00002097          	auipc	ra,0x2
 70035cc:	2d8080e7          	jalr	728(ra) # 70058a0 <_ZN4core5panic10panic_info9PanicInfo7message17hf150a2730354cba8E>
 70035d0:	00842403          	lw	s0,8(s0)
 70035d4:	00050913          	mv	s2,a0
 70035d8:	00048513          	mv	a0,s1
 70035dc:	00002097          	auipc	ra,0x2
 70035e0:	2d4080e7          	jalr	724(ra) # 70058b0 <_ZN4core5panic10panic_info9PanicInfo10can_unwind17hbeb5b276a93a1a25E>
 70035e4:	00050713          	mv	a4,a0
 70035e8:	07008537          	lui	a0,0x7008
 70035ec:	a0c50593          	add	a1,a0,-1524 # 7007a0c <anon.bc0186976f2b4070236a5106e84f3a4e.76.llvm.9006096014459121332>
 70035f0:	00010513          	mv	a0,sp
 70035f4:	00090613          	mv	a2,s2
 70035f8:	00040693          	mv	a3,s0
 70035fc:	fffff097          	auipc	ra,0xfffff
 7003600:	048080e7          	jalr	72(ra) # 7002644 <_ZN3std9panicking20rust_panic_with_hook17heb15842d85b8ff86E>
 7003604:	c0001073          	unimp

07003608 <_ZN5alloc4sync12Arc$LT$T$GT$9drop_slow17h9740c3a8f539a67cE>:
 7003608:	ff010113          	add	sp,sp,-16
 700360c:	00112623          	sw	ra,12(sp)
 7003610:	00812423          	sw	s0,8(sp)
 7003614:	00052403          	lw	s0,0(a0)
 7003618:	01042583          	lw	a1,16(s0)
 700361c:	00058a63          	beqz	a1,7003630 <_ZN5alloc4sync12Arc$LT$T$GT$9drop_slow17h9740c3a8f539a67cE+0x28>
 7003620:	00c42503          	lw	a0,12(s0)
 7003624:	00100613          	li	a2,1
 7003628:	ffffd097          	auipc	ra,0xffffd
 700362c:	004080e7          	jalr	4(ra) # 700062c <__rust_dealloc>
 7003630:	fff00513          	li	a0,-1
 7003634:	02a40c63          	beq	s0,a0,700366c <_ZN5alloc4sync12Arc$LT$T$GT$9drop_slow17h9740c3a8f539a67cE+0x64>
 7003638:	00442503          	lw	a0,4(s0)
 700363c:	fff50593          	add	a1,a0,-1
 7003640:	00100613          	li	a2,1
 7003644:	00b42223          	sw	a1,4(s0)
 7003648:	02c51263          	bne	a0,a2,700366c <_ZN5alloc4sync12Arc$LT$T$GT$9drop_slow17h9740c3a8f539a67cE+0x64>
 700364c:	01800593          	li	a1,24
 7003650:	00400613          	li	a2,4
 7003654:	00040513          	mv	a0,s0
 7003658:	00c12083          	lw	ra,12(sp)
 700365c:	00812403          	lw	s0,8(sp)
 7003660:	01010113          	add	sp,sp,16
 7003664:	ffffd317          	auipc	t1,0xffffd
 7003668:	fc830067          	jr	-56(t1) # 700062c <__rust_dealloc>
 700366c:	00c12083          	lw	ra,12(sp)
 7003670:	00812403          	lw	s0,8(sp)
 7003674:	01010113          	add	sp,sp,16
 7003678:	00008067          	ret

0700367c <_ZN5alloc4sync12Arc$LT$T$GT$9drop_slow17ha046ddaa357e950cE>:
 700367c:	ff010113          	add	sp,sp,-16
 7003680:	00112623          	sw	ra,12(sp)
 7003684:	00812423          	sw	s0,8(sp)
 7003688:	00052403          	lw	s0,0(a0)
 700368c:	01042503          	lw	a0,16(s0)
 7003690:	02050063          	beqz	a0,70036b0 <_ZN5alloc4sync12Arc$LT$T$GT$9drop_slow17ha046ddaa357e950cE+0x34>
 7003694:	00050023          	sb	zero,0(a0)
 7003698:	01442583          	lw	a1,20(s0)
 700369c:	00058a63          	beqz	a1,70036b0 <_ZN5alloc4sync12Arc$LT$T$GT$9drop_slow17ha046ddaa357e950cE+0x34>
 70036a0:	01042503          	lw	a0,16(s0)
 70036a4:	00100613          	li	a2,1
 70036a8:	ffffd097          	auipc	ra,0xffffd
 70036ac:	f84080e7          	jalr	-124(ra) # 700062c <__rust_dealloc>
 70036b0:	fff00513          	li	a0,-1
 70036b4:	02a40c63          	beq	s0,a0,70036ec <_ZN5alloc4sync12Arc$LT$T$GT$9drop_slow17ha046ddaa357e950cE+0x70>
 70036b8:	00442503          	lw	a0,4(s0)
 70036bc:	fff50593          	add	a1,a0,-1
 70036c0:	00100613          	li	a2,1
 70036c4:	00b42223          	sw	a1,4(s0)
 70036c8:	02c51263          	bne	a0,a2,70036ec <_ZN5alloc4sync12Arc$LT$T$GT$9drop_slow17ha046ddaa357e950cE+0x70>
 70036cc:	02000593          	li	a1,32
 70036d0:	00800613          	li	a2,8
 70036d4:	00040513          	mv	a0,s0
 70036d8:	00c12083          	lw	ra,12(sp)
 70036dc:	00812403          	lw	s0,8(sp)
 70036e0:	01010113          	add	sp,sp,16
 70036e4:	ffffd317          	auipc	t1,0xffffd
 70036e8:	f4830067          	jr	-184(t1) # 700062c <__rust_dealloc>
 70036ec:	00c12083          	lw	ra,12(sp)
 70036f0:	00812403          	lw	s0,8(sp)
 70036f4:	01010113          	add	sp,sp,16
 70036f8:	00008067          	ret

070036fc <_ZN3std2io5stdio14OUTPUT_CAPTURE7__getit17hbb9798fd7e0adf8aE.llvm.17917170917373548271>:
 70036fc:	000805b7          	lui	a1,0x80
 7003700:	00c58593          	add	a1,a1,12 # 8000c <_ZN3std2io5stdio14OUTPUT_CAPTURE7__getit5__KEY17hbc01fe8159105c8aE>
 7003704:	00050613          	mv	a2,a0
 7003708:	00058513          	mv	a0,a1
 700370c:	00060593          	mv	a1,a2
 7003710:	00000317          	auipc	t1,0x0
 7003714:	59030067          	jr	1424(t1) # 7003ca0 <_ZN3std6thread5local2os12Key$LT$T$GT$3get17h9c218c76e0543e80E>

07003718 <_ZN4core3ptr29drop_in_place$LT$$RF$bool$GT$17h1e377f45c2407530E.llvm.14256562575406249000>:
 7003718:	00008067          	ret

0700371c <_ZN4core9panicking13assert_failed17h88b995a5c9938d12E>:
 700371c:	fe010113          	add	sp,sp,-32
 7003720:	00070813          	mv	a6,a4
 7003724:	0146a703          	lw	a4,20(a3)
 7003728:	0106a783          	lw	a5,16(a3)
 700372c:	00b12023          	sw	a1,0(sp)
 7003730:	00c12223          	sw	a2,4(sp)
 7003734:	00e12e23          	sw	a4,28(sp)
 7003738:	00f12c23          	sw	a5,24(sp)
 700373c:	00c6a583          	lw	a1,12(a3)
 7003740:	0086a603          	lw	a2,8(a3)
 7003744:	0046a703          	lw	a4,4(a3)
 7003748:	0006a683          	lw	a3,0(a3)
 700374c:	00b12a23          	sw	a1,20(sp)
 7003750:	00c12823          	sw	a2,16(sp)
 7003754:	00e12623          	sw	a4,12(sp)
 7003758:	00d12423          	sw	a3,8(sp)
 700375c:	070085b7          	lui	a1,0x7008
 7003760:	b2c58613          	add	a2,a1,-1236 # 7007b2c <anon.8f6a86c2bc9b382f474d86b741846cce.6.llvm.14256562575406249000>
 7003764:	00010593          	mv	a1,sp
 7003768:	00410693          	add	a3,sp,4
 700376c:	00810793          	add	a5,sp,8
 7003770:	00060713          	mv	a4,a2
 7003774:	00003097          	auipc	ra,0x3
 7003778:	2d8080e7          	jalr	728(ra) # 7006a4c <_ZN4core9panicking19assert_failed_inner17he0576c9d7ff9f73bE>
 700377c:	c0001073          	unimp

07003780 <_ZN3std9panicking11panic_count17is_zero_slow_path17hc7714d9f060b0c3aE>:
 7003780:	ff010113          	add	sp,sp,-16
 7003784:	00112623          	sw	ra,12(sp)
 7003788:	00080537          	lui	a0,0x80
 700378c:	01c50513          	add	a0,a0,28 # 8001c <_ZN3std9panicking11panic_count17LOCAL_PANIC_COUNT7__getit5__KEY17he327123382402121E>
 7003790:	00000593          	li	a1,0
 7003794:	00000097          	auipc	ra,0x0
 7003798:	69c080e7          	jalr	1692(ra) # 7003e30 <_ZN3std6thread5local2os12Key$LT$T$GT$3get17h9f1bb54295c058d4E>
 700379c:	00050c63          	beqz	a0,70037b4 <_ZN3std9panicking11panic_count17is_zero_slow_path17hc7714d9f060b0c3aE+0x34>
 70037a0:	00052503          	lw	a0,0(a0)
 70037a4:	00153513          	seqz	a0,a0
 70037a8:	00c12083          	lw	ra,12(sp)
 70037ac:	01010113          	add	sp,sp,16
 70037b0:	00008067          	ret
 70037b4:	07008537          	lui	a0,0x7008
 70037b8:	cbb50513          	add	a0,a0,-837 # 7007cbb <anon.e5acf19516f4a9cd5b82bd5981941ef5.15.llvm.13949807993874650229>
 70037bc:	070085b7          	lui	a1,0x7008
 70037c0:	d0458693          	add	a3,a1,-764 # 7007d04 <anon.e5acf19516f4a9cd5b82bd5981941ef5.16.llvm.13949807993874650229>
 70037c4:	070085b7          	lui	a1,0x7008
 70037c8:	dd858713          	add	a4,a1,-552 # 7007dd8 <anon.e5acf19516f4a9cd5b82bd5981941ef5.18.llvm.13949807993874650229>
 70037cc:	04600593          	li	a1,70
 70037d0:	00810613          	add	a2,sp,8
 70037d4:	00003097          	auipc	ra,0x3
 70037d8:	3ec080e7          	jalr	1004(ra) # 7006bc0 <_ZN4core6result13unwrap_failed17hf6bc9b148a5ba21eE>
 70037dc:	c0001073          	unimp

070037e0 <_ZN3std9panicking11panic_count17LOCAL_PANIC_COUNT7__getit17hce72445e52496182E.llvm.14256562575406249000>:
 70037e0:	000805b7          	lui	a1,0x80
 70037e4:	01c58593          	add	a1,a1,28 # 8001c <_ZN3std9panicking11panic_count17LOCAL_PANIC_COUNT7__getit5__KEY17he327123382402121E>
 70037e8:	00050613          	mv	a2,a0
 70037ec:	00058513          	mv	a0,a1
 70037f0:	00060593          	mv	a1,a2
 70037f4:	00000317          	auipc	t1,0x0
 70037f8:	63c30067          	jr	1596(t1) # 7003e30 <_ZN3std6thread5local2os12Key$LT$T$GT$3get17h9f1bb54295c058d4E>

070037fc <_ZN4core3ptr60drop_in_place$LT$std..sync..mutex..MutexGuard$LT$u64$GT$$GT$17hf95e54caa7e8105fE.llvm.11758424910166210904>:
 70037fc:	ff010113          	add	sp,sp,-16
 7003800:	00112623          	sw	ra,12(sp)
 7003804:	00812423          	sw	s0,8(sp)
 7003808:	0ff5f593          	zext.b	a1,a1
 700380c:	00050413          	mv	s0,a0
 7003810:	00059c63          	bnez	a1,7003828 <_ZN4core3ptr60drop_in_place$LT$std..sync..mutex..MutexGuard$LT$u64$GT$$GT$17hf95e54caa7e8105fE.llvm.11758424910166210904+0x2c>
 7003814:	00080537          	lui	a0,0x80
 7003818:	03452503          	lw	a0,52(a0) # 80034 <_ZN3std9panicking11panic_count18GLOBAL_PANIC_COUNT17h9bef03536075a61aE>
 700381c:	00151513          	sll	a0,a0,0x1
 7003820:	00155513          	srl	a0,a0,0x1
 7003824:	00051c63          	bnez	a0,700383c <_ZN4core3ptr60drop_in_place$LT$std..sync..mutex..MutexGuard$LT$u64$GT$$GT$17hf95e54caa7e8105fE.llvm.11758424910166210904+0x40>
 7003828:	00040023          	sb	zero,0(s0)
 700382c:	00c12083          	lw	ra,12(sp)
 7003830:	00812403          	lw	s0,8(sp)
 7003834:	01010113          	add	sp,sp,16
 7003838:	00008067          	ret
 700383c:	00000097          	auipc	ra,0x0
 7003840:	f44080e7          	jalr	-188(ra) # 7003780 <_ZN3std9panicking11panic_count17is_zero_slow_path17hc7714d9f060b0c3aE>
 7003844:	fe0512e3          	bnez	a0,7003828 <_ZN4core3ptr60drop_in_place$LT$std..sync..mutex..MutexGuard$LT$u64$GT$$GT$17hf95e54caa7e8105fE.llvm.11758424910166210904+0x2c>
 7003848:	00100513          	li	a0,1
 700384c:	00a400a3          	sb	a0,1(s0)
 7003850:	fd9ff06f          	j	7003828 <_ZN4core3ptr60drop_in_place$LT$std..sync..mutex..MutexGuard$LT$u64$GT$$GT$17hf95e54caa7e8105fE.llvm.11758424910166210904+0x2c>

07003854 <_ZN3std6thread8ThreadId3new9exhausted17h46db37c5c8bfd225E.llvm.11758424910166210904>:
 7003854:	fe010113          	add	sp,sp,-32
 7003858:	07008537          	lui	a0,0x7008
 700385c:	c3450513          	add	a0,a0,-972 # 7007c34 <anon.ce42269267409fad0f351b7abd853977.20.llvm.11758424910166210904>
 7003860:	00a12423          	sw	a0,8(sp)
 7003864:	00100513          	li	a0,1
 7003868:	00a12623          	sw	a0,12(sp)
 700386c:	00012823          	sw	zero,16(sp)
 7003870:	07008537          	lui	a0,0x7008
 7003874:	b3c50513          	add	a0,a0,-1220 # 7007b3c <anon.ce42269267409fad0f351b7abd853977.12.llvm.11758424910166210904>
 7003878:	00a12c23          	sw	a0,24(sp)
 700387c:	00012e23          	sw	zero,28(sp)
 7003880:	07008537          	lui	a0,0x7008
 7003884:	c3c50593          	add	a1,a0,-964 # 7007c3c <anon.ce42269267409fad0f351b7abd853977.21.llvm.11758424910166210904>
 7003888:	00810513          	add	a0,sp,8
 700388c:	00003097          	auipc	ra,0x3
 7003890:	0dc080e7          	jalr	220(ra) # 7006968 <_ZN4core9panicking9panic_fmt17hc6785b61922481b6E>
 7003894:	c0001073          	unimp

07003898 <_ZN3std6thread6Thread3new17hcc331c91952c9110E>:
 7003898:	fc010113          	add	sp,sp,-64
 700389c:	02112e23          	sw	ra,60(sp)
 70038a0:	02812c23          	sw	s0,56(sp)
 70038a4:	02912a23          	sw	s1,52(sp)
 70038a8:	03212823          	sw	s2,48(sp)
 70038ac:	03312623          	sw	s3,44(sp)
 70038b0:	00058493          	mv	s1,a1
 70038b4:	00050913          	mv	s2,a0
 70038b8:	02000513          	li	a0,32
 70038bc:	00800593          	li	a1,8
 70038c0:	ffffd097          	auipc	ra,0xffffd
 70038c4:	d64080e7          	jalr	-668(ra) # 7000624 <__rust_alloc>
 70038c8:	12050863          	beqz	a0,70039f8 <_ZN3std6thread6Thread3new17hcc331c91952c9110E+0x160>
 70038cc:	00050413          	mv	s0,a0
 70038d0:	00100513          	li	a0,1
 70038d4:	00a42023          	sw	a0,0(s0)
 70038d8:	000805b7          	lui	a1,0x80
 70038dc:	0a05c603          	lbu	a2,160(a1) # 800a0 <_ZN3std6thread8ThreadId3new7COUNTER17he55dc5492a0aa059E.llvm.11758424910166210904>
 70038e0:	00a42223          	sw	a0,4(s0)
 70038e4:	01242823          	sw	s2,16(s0)
 70038e8:	00942a23          	sw	s1,20(s0)
 70038ec:	00167613          	and	a2,a2,1
 70038f0:	00c107a3          	sb	a2,15(sp)
 70038f4:	0aa58023          	sb	a0,160(a1)
 70038f8:	10061a63          	bnez	a2,7003a0c <_ZN3std6thread6Thread3new17hcc331c91952c9110E+0x174>
 70038fc:	00080537          	lui	a0,0x80
 7003900:	03452503          	lw	a0,52(a0) # 80034 <_ZN3std9panicking11panic_count18GLOBAL_PANIC_COUNT17h9bef03536075a61aE>
 7003904:	800005b7          	lui	a1,0x80000
 7003908:	fff58993          	add	s3,a1,-1 # 7fffffff <anon.811f17354c499ab9db5bac79de70cdc4.0.llvm.3008685313708409704+0x78ff7a08>
 700390c:	01357533          	and	a0,a0,s3
 7003910:	08051263          	bnez	a0,7003994 <_ZN3std6thread6Thread3new17hcc331c91952c9110E+0xfc>
 7003914:	00080537          	lui	a0,0x80
 7003918:	0a050513          	add	a0,a0,160 # 800a0 <_ZN3std6thread8ThreadId3new7COUNTER17he55dc5492a0aa059E.llvm.11758424910166210904>
 700391c:	00852603          	lw	a2,8(a0)
 7003920:	00c52583          	lw	a1,12(a0)
 7003924:	00160493          	add	s1,a2,1
 7003928:	00c4b533          	sltu	a0,s1,a2
 700392c:	00a58933          	add	s2,a1,a0
 7003930:	00c4f463          	bgeu	s1,a2,7003938 <_ZN3std6thread6Thread3new17hcc331c91952c9110E+0xa0>
 7003934:	00b93533          	sltu	a0,s2,a1
 7003938:	12051063          	bnez	a0,7003a58 <_ZN3std6thread6Thread3new17hcc331c91952c9110E+0x1c0>
 700393c:	00080537          	lui	a0,0x80
 7003940:	0a050513          	add	a0,a0,160 # 800a0 <_ZN3std6thread8ThreadId3new7COUNTER17he55dc5492a0aa059E.llvm.11758424910166210904>
 7003944:	01252623          	sw	s2,12(a0)
 7003948:	00952423          	sw	s1,8(a0)
 700394c:	00080537          	lui	a0,0x80
 7003950:	03452503          	lw	a0,52(a0) # 80034 <_ZN3std9panicking11panic_count18GLOBAL_PANIC_COUNT17h9bef03536075a61aE>
 7003954:	01357533          	and	a0,a0,s3
 7003958:	08051263          	bnez	a0,70039dc <_ZN3std6thread6Thread3new17hcc331c91952c9110E+0x144>
 700395c:	00080537          	lui	a0,0x80
 7003960:	0a050023          	sb	zero,160(a0) # 800a0 <_ZN3std6thread8ThreadId3new7COUNTER17he55dc5492a0aa059E.llvm.11758424910166210904>
 7003964:	01242623          	sw	s2,12(s0)
 7003968:	00942423          	sw	s1,8(s0)
 700396c:	00042c23          	sw	zero,24(s0)
 7003970:	00041e23          	sh	zero,28(s0)
 7003974:	00040513          	mv	a0,s0
 7003978:	03c12083          	lw	ra,60(sp)
 700397c:	03812403          	lw	s0,56(sp)
 7003980:	03412483          	lw	s1,52(sp)
 7003984:	03012903          	lw	s2,48(sp)
 7003988:	02c12983          	lw	s3,44(sp)
 700398c:	04010113          	add	sp,sp,64
 7003990:	00008067          	ret
 7003994:	00000097          	auipc	ra,0x0
 7003998:	dec080e7          	jalr	-532(ra) # 7003780 <_ZN3std9panicking11panic_count17is_zero_slow_path17hc7714d9f060b0c3aE>
 700399c:	000805b7          	lui	a1,0x80
 70039a0:	0a058593          	add	a1,a1,160 # 800a0 <_ZN3std6thread8ThreadId3new7COUNTER17he55dc5492a0aa059E.llvm.11758424910166210904>
 70039a4:	0085a683          	lw	a3,8(a1)
 70039a8:	00c5a603          	lw	a2,12(a1)
 70039ac:	00168493          	add	s1,a3,1
 70039b0:	00d4b5b3          	sltu	a1,s1,a3
 70039b4:	00b60933          	add	s2,a2,a1
 70039b8:	00d4f463          	bgeu	s1,a3,70039c0 <_ZN3std6thread6Thread3new17hcc331c91952c9110E+0x128>
 70039bc:	00c935b3          	sltu	a1,s2,a2
 70039c0:	0a059c63          	bnez	a1,7003a78 <_ZN3std6thread6Thread3new17hcc331c91952c9110E+0x1e0>
 70039c4:	000805b7          	lui	a1,0x80
 70039c8:	0a058593          	add	a1,a1,160 # 800a0 <_ZN3std6thread8ThreadId3new7COUNTER17he55dc5492a0aa059E.llvm.11758424910166210904>
 70039cc:	0125a623          	sw	s2,12(a1)
 70039d0:	0095a423          	sw	s1,8(a1)
 70039d4:	f6051ce3          	bnez	a0,700394c <_ZN3std6thread6Thread3new17hcc331c91952c9110E+0xb4>
 70039d8:	f85ff06f          	j	700395c <_ZN3std6thread6Thread3new17hcc331c91952c9110E+0xc4>
 70039dc:	00000097          	auipc	ra,0x0
 70039e0:	da4080e7          	jalr	-604(ra) # 7003780 <_ZN3std9panicking11panic_count17is_zero_slow_path17hc7714d9f060b0c3aE>
 70039e4:	f6051ce3          	bnez	a0,700395c <_ZN3std6thread6Thread3new17hcc331c91952c9110E+0xc4>
 70039e8:	00080537          	lui	a0,0x80
 70039ec:	00100593          	li	a1,1
 70039f0:	0ab500a3          	sb	a1,161(a0) # 800a1 <_ZN3std6thread8ThreadId3new7COUNTER17he55dc5492a0aa059E.llvm.11758424910166210904+0x1>
 70039f4:	f69ff06f          	j	700395c <_ZN3std6thread6Thread3new17hcc331c91952c9110E+0xc4>
 70039f8:	02000513          	li	a0,32
 70039fc:	00800593          	li	a1,8
 7003a00:	00002097          	auipc	ra,0x2
 7003a04:	95c080e7          	jalr	-1700(ra) # 700535c <_ZN5alloc5alloc18handle_alloc_error17hf138f09b4614ca73E>
 7003a08:	c0001073          	unimp
 7003a0c:	070085b7          	lui	a1,0x7008
 7003a10:	a3858593          	add	a1,a1,-1480 # 7007a38 <anon.eff0a5df67630090483337dc173c00d6.102.llvm.17917170917373548271>
 7003a14:	00b12823          	sw	a1,16(sp)
 7003a18:	00a12a23          	sw	a0,20(sp)
 7003a1c:	00012c23          	sw	zero,24(sp)
 7003a20:	07008537          	lui	a0,0x7008
 7003a24:	a3450513          	add	a0,a0,-1484 # 7007a34 <anon.eff0a5df67630090483337dc173c00d6.100.llvm.17917170917373548271>
 7003a28:	02a12023          	sw	a0,32(sp)
 7003a2c:	02012223          	sw	zero,36(sp)
 7003a30:	07008537          	lui	a0,0x7008
 7003a34:	a3450613          	add	a2,a0,-1484 # 7007a34 <anon.eff0a5df67630090483337dc173c00d6.100.llvm.17917170917373548271>
 7003a38:	07008537          	lui	a0,0x7008
 7003a3c:	b1c50713          	add	a4,a0,-1252 # 7007b1c <anon.eff0a5df67630090483337dc173c00d6.104.llvm.17917170917373548271>
 7003a40:	00f10593          	add	a1,sp,15
 7003a44:	01010693          	add	a3,sp,16
 7003a48:	00000513          	li	a0,0
 7003a4c:	00000097          	auipc	ra,0x0
 7003a50:	cd0080e7          	jalr	-816(ra) # 700371c <_ZN4core9panicking13assert_failed17h88b995a5c9938d12E>
 7003a54:	c0001073          	unimp
 7003a58:	00000593          	li	a1,0
 7003a5c:	00080537          	lui	a0,0x80
 7003a60:	0a050513          	add	a0,a0,160 # 800a0 <_ZN3std6thread8ThreadId3new7COUNTER17he55dc5492a0aa059E.llvm.11758424910166210904>
 7003a64:	00000097          	auipc	ra,0x0
 7003a68:	d98080e7          	jalr	-616(ra) # 70037fc <_ZN4core3ptr60drop_in_place$LT$std..sync..mutex..MutexGuard$LT$u64$GT$$GT$17hf95e54caa7e8105fE.llvm.11758424910166210904>
 7003a6c:	00000097          	auipc	ra,0x0
 7003a70:	de8080e7          	jalr	-536(ra) # 7003854 <_ZN3std6thread8ThreadId3new9exhausted17h46db37c5c8bfd225E.llvm.11758424910166210904>
 7003a74:	c0001073          	unimp
 7003a78:	00154593          	xor	a1,a0,1
 7003a7c:	fe1ff06f          	j	7003a5c <_ZN3std6thread6Thread3new17hcc331c91952c9110E+0x1c4>

07003a80 <_ZN36_$LT$T$u20$as$u20$core..any..Any$GT$7type_id17ha66ce87d39b36553E>:
 7003a80:	66a4d537          	lui	a0,0x66a4d
 7003a84:	8eb50513          	add	a0,a0,-1813 # 66a4c8eb <anon.811f17354c499ab9db5bac79de70cdc4.0.llvm.3008685313708409704+0x5fa442f4>
 7003a88:	7444d5b7          	lui	a1,0x7444d
 7003a8c:	ec758593          	add	a1,a1,-313 # 7444cec7 <anon.811f17354c499ab9db5bac79de70cdc4.0.llvm.3008685313708409704+0x6d4448d0>
 7003a90:	00008067          	ret

07003a94 <_ZN44_$LT$$RF$T$u20$as$u20$core..fmt..Display$GT$3fmt17h6f360459c204b8a7E>:
 7003a94:	00052503          	lw	a0,0(a0)
 7003a98:	00002317          	auipc	t1,0x2
 7003a9c:	acc30067          	jr	-1332(t1) # 7005564 <_ZN70_$LT$core..panic..location..Location$u20$as$u20$core..fmt..Display$GT$3fmt17h21a0255f8d1b0a0fE>

07003aa0 <_ZN4core3ptr81drop_in_place$LT$core..result..Result$LT$$LP$$RP$$C$std..io..error..Error$GT$$GT$17h8c9406c494c65c98E.llvm.12044279608799662234>:
 7003aa0:	ff010113          	add	sp,sp,-16
 7003aa4:	00112623          	sw	ra,12(sp)
 7003aa8:	00812423          	sw	s0,8(sp)
 7003aac:	00912223          	sw	s1,4(sp)
 7003ab0:	00050413          	mv	s0,a0
 7003ab4:	00054503          	lbu	a0,0(a0)
 7003ab8:	00300593          	li	a1,3
 7003abc:	04b51c63          	bne	a0,a1,7003b14 <_ZN4core3ptr81drop_in_place$LT$core..result..Result$LT$$LP$$RP$$C$std..io..error..Error$GT$$GT$17h8c9406c494c65c98E.llvm.12044279608799662234+0x74>
 7003ac0:	00442483          	lw	s1,4(s0)
 7003ac4:	0044a583          	lw	a1,4(s1)
 7003ac8:	0004a503          	lw	a0,0(s1)
 7003acc:	0005a583          	lw	a1,0(a1)
 7003ad0:	000580e7          	jalr	a1
 7003ad4:	0044a503          	lw	a0,4(s1)
 7003ad8:	00452583          	lw	a1,4(a0)
 7003adc:	00058a63          	beqz	a1,7003af0 <_ZN4core3ptr81drop_in_place$LT$core..result..Result$LT$$LP$$RP$$C$std..io..error..Error$GT$$GT$17h8c9406c494c65c98E.llvm.12044279608799662234+0x50>
 7003ae0:	00852603          	lw	a2,8(a0)
 7003ae4:	0004a503          	lw	a0,0(s1)
 7003ae8:	ffffd097          	auipc	ra,0xffffd
 7003aec:	b44080e7          	jalr	-1212(ra) # 700062c <__rust_dealloc>
 7003af0:	00442503          	lw	a0,4(s0)
 7003af4:	00c00593          	li	a1,12
 7003af8:	00400613          	li	a2,4
 7003afc:	00c12083          	lw	ra,12(sp)
 7003b00:	00812403          	lw	s0,8(sp)
 7003b04:	00412483          	lw	s1,4(sp)
 7003b08:	01010113          	add	sp,sp,16
 7003b0c:	ffffd317          	auipc	t1,0xffffd
 7003b10:	b2030067          	jr	-1248(t1) # 700062c <__rust_dealloc>
 7003b14:	00c12083          	lw	ra,12(sp)
 7003b18:	00812403          	lw	s0,8(sp)
 7003b1c:	00412483          	lw	s1,4(sp)
 7003b20:	01010113          	add	sp,sp,16
 7003b24:	00008067          	ret

07003b28 <_ZN3std6thread5local2os12Key$LT$T$GT$3get17h4eb2c9aba7a806e6E>:
 7003b28:	fe010113          	add	sp,sp,-32
 7003b2c:	00112e23          	sw	ra,28(sp)
 7003b30:	00812c23          	sw	s0,24(sp)
 7003b34:	00912a23          	sw	s1,20(sp)
 7003b38:	01212823          	sw	s2,16(sp)
 7003b3c:	00050913          	mv	s2,a0
 7003b40:	00052503          	lw	a0,0(a0)
 7003b44:	00058493          	mv	s1,a1
 7003b48:	00050a63          	beqz	a0,7003b5c <_ZN3std6thread5local2os12Key$LT$T$GT$3get17h4eb2c9aba7a806e6E+0x34>
 7003b4c:	00052503          	lw	a0,0(a0)
 7003b50:	00100593          	li	a1,1
 7003b54:	02a5e063          	bltu	a1,a0,7003b74 <_ZN3std6thread5local2os12Key$LT$T$GT$3get17h4eb2c9aba7a806e6E+0x4c>
 7003b58:	02c0006f          	j	7003b84 <_ZN3std6thread5local2os12Key$LT$T$GT$3get17h4eb2c9aba7a806e6E+0x5c>
 7003b5c:	00090513          	mv	a0,s2
 7003b60:	00000097          	auipc	ra,0x0
 7003b64:	64c080e7          	jalr	1612(ra) # 70041ac <_ZN3std10sys_common16thread_local_key9StaticKey9lazy_init17hb9899df5e85445d9E>
 7003b68:	00052503          	lw	a0,0(a0)
 7003b6c:	00100593          	li	a1,1
 7003b70:	00a5fa63          	bgeu	a1,a0,7003b84 <_ZN3std6thread5local2os12Key$LT$T$GT$3get17h4eb2c9aba7a806e6E+0x5c>
 7003b74:	00052583          	lw	a1,0(a0)
 7003b78:	00058663          	beqz	a1,7003b84 <_ZN3std6thread5local2os12Key$LT$T$GT$3get17h4eb2c9aba7a806e6E+0x5c>
 7003b7c:	00450513          	add	a0,a0,4
 7003b80:	0f40006f          	j	7003c74 <_ZN3std6thread5local2os12Key$LT$T$GT$3get17h4eb2c9aba7a806e6E+0x14c>
 7003b84:	00092503          	lw	a0,0(s2)
 7003b88:	0c050863          	beqz	a0,7003c58 <_ZN3std6thread5local2os12Key$LT$T$GT$3get17h4eb2c9aba7a806e6E+0x130>
 7003b8c:	00052403          	lw	s0,0(a0)
 7003b90:	00100513          	li	a0,1
 7003b94:	0ca40e63          	beq	s0,a0,7003c70 <_ZN3std6thread5local2os12Key$LT$T$GT$3get17h4eb2c9aba7a806e6E+0x148>
 7003b98:	02041e63          	bnez	s0,7003bd4 <_ZN3std6thread5local2os12Key$LT$T$GT$3get17h4eb2c9aba7a806e6E+0xac>
 7003b9c:	01000513          	li	a0,16
 7003ba0:	00400593          	li	a1,4
 7003ba4:	ffffd097          	auipc	ra,0xffffd
 7003ba8:	a80080e7          	jalr	-1408(ra) # 7000624 <__rust_alloc>
 7003bac:	0e050063          	beqz	a0,7003c8c <_ZN3std6thread5local2os12Key$LT$T$GT$3get17h4eb2c9aba7a806e6E+0x164>
 7003bb0:	00050413          	mv	s0,a0
 7003bb4:	00052023          	sw	zero,0(a0)
 7003bb8:	01252623          	sw	s2,12(a0)
 7003bbc:	00092503          	lw	a0,0(s2)
 7003bc0:	00051863          	bnez	a0,7003bd0 <_ZN3std6thread5local2os12Key$LT$T$GT$3get17h4eb2c9aba7a806e6E+0xa8>
 7003bc4:	00090513          	mv	a0,s2
 7003bc8:	00000097          	auipc	ra,0x0
 7003bcc:	5e4080e7          	jalr	1508(ra) # 70041ac <_ZN3std10sys_common16thread_local_key9StaticKey9lazy_init17hb9899df5e85445d9E>
 7003bd0:	00852023          	sw	s0,0(a0)
 7003bd4:	00048e63          	beqz	s1,7003bf0 <_ZN3std6thread5local2os12Key$LT$T$GT$3get17h4eb2c9aba7a806e6E+0xc8>
 7003bd8:	0004a603          	lw	a2,0(s1)
 7003bdc:	0044a503          	lw	a0,4(s1)
 7003be0:	0084a583          	lw	a1,8(s1)
 7003be4:	00100693          	li	a3,1
 7003be8:	0004a023          	sw	zero,0(s1)
 7003bec:	00d60663          	beq	a2,a3,7003bf8 <_ZN3std6thread5local2os12Key$LT$T$GT$3get17h4eb2c9aba7a806e6E+0xd0>
 7003bf0:	00000513          	li	a0,0
 7003bf4:	00000593          	li	a1,0
 7003bf8:	00842603          	lw	a2,8(s0)
 7003bfc:	00c12423          	sw	a2,8(sp)
 7003c00:	00442603          	lw	a2,4(s0)
 7003c04:	00c12223          	sw	a2,4(sp)
 7003c08:	00042603          	lw	a2,0(s0)
 7003c0c:	00c12023          	sw	a2,0(sp)
 7003c10:	00100613          	li	a2,1
 7003c14:	00c42023          	sw	a2,0(s0)
 7003c18:	00a42223          	sw	a0,4(s0)
 7003c1c:	00b42423          	sw	a1,8(s0)
 7003c20:	00012503          	lw	a0,0(sp)
 7003c24:	02050663          	beqz	a0,7003c50 <_ZN3std6thread5local2os12Key$LT$T$GT$3get17h4eb2c9aba7a806e6E+0x128>
 7003c28:	00812503          	lw	a0,8(sp)
 7003c2c:	02050263          	beqz	a0,7003c50 <_ZN3std6thread5local2os12Key$LT$T$GT$3get17h4eb2c9aba7a806e6E+0x128>
 7003c30:	00052583          	lw	a1,0(a0)
 7003c34:	fff58613          	add	a2,a1,-1
 7003c38:	00100693          	li	a3,1
 7003c3c:	00c52023          	sw	a2,0(a0)
 7003c40:	00d59863          	bne	a1,a3,7003c50 <_ZN3std6thread5local2os12Key$LT$T$GT$3get17h4eb2c9aba7a806e6E+0x128>
 7003c44:	00810513          	add	a0,sp,8
 7003c48:	00000097          	auipc	ra,0x0
 7003c4c:	a34080e7          	jalr	-1484(ra) # 700367c <_ZN5alloc4sync12Arc$LT$T$GT$9drop_slow17ha046ddaa357e950cE>
 7003c50:	00440513          	add	a0,s0,4
 7003c54:	0200006f          	j	7003c74 <_ZN3std6thread5local2os12Key$LT$T$GT$3get17h4eb2c9aba7a806e6E+0x14c>
 7003c58:	00090513          	mv	a0,s2
 7003c5c:	00000097          	auipc	ra,0x0
 7003c60:	550080e7          	jalr	1360(ra) # 70041ac <_ZN3std10sys_common16thread_local_key9StaticKey9lazy_init17hb9899df5e85445d9E>
 7003c64:	00052403          	lw	s0,0(a0)
 7003c68:	00100513          	li	a0,1
 7003c6c:	f2a416e3          	bne	s0,a0,7003b98 <_ZN3std6thread5local2os12Key$LT$T$GT$3get17h4eb2c9aba7a806e6E+0x70>
 7003c70:	00000513          	li	a0,0
 7003c74:	01c12083          	lw	ra,28(sp)
 7003c78:	01812403          	lw	s0,24(sp)
 7003c7c:	01412483          	lw	s1,20(sp)
 7003c80:	01012903          	lw	s2,16(sp)
 7003c84:	02010113          	add	sp,sp,32
 7003c88:	00008067          	ret
 7003c8c:	01000513          	li	a0,16
 7003c90:	00400593          	li	a1,4
 7003c94:	00001097          	auipc	ra,0x1
 7003c98:	6c8080e7          	jalr	1736(ra) # 700535c <_ZN5alloc5alloc18handle_alloc_error17hf138f09b4614ca73E>
 7003c9c:	c0001073          	unimp

07003ca0 <_ZN3std6thread5local2os12Key$LT$T$GT$3get17h9c218c76e0543e80E>:
 7003ca0:	fe010113          	add	sp,sp,-32
 7003ca4:	00112e23          	sw	ra,28(sp)
 7003ca8:	00812c23          	sw	s0,24(sp)
 7003cac:	00912a23          	sw	s1,20(sp)
 7003cb0:	01212823          	sw	s2,16(sp)
 7003cb4:	00050913          	mv	s2,a0
 7003cb8:	00052503          	lw	a0,0(a0)
 7003cbc:	00058493          	mv	s1,a1
 7003cc0:	00050a63          	beqz	a0,7003cd4 <_ZN3std6thread5local2os12Key$LT$T$GT$3get17h9c218c76e0543e80E+0x34>
 7003cc4:	00052503          	lw	a0,0(a0)
 7003cc8:	00100593          	li	a1,1
 7003ccc:	02a5e063          	bltu	a1,a0,7003cec <_ZN3std6thread5local2os12Key$LT$T$GT$3get17h9c218c76e0543e80E+0x4c>
 7003cd0:	02c0006f          	j	7003cfc <_ZN3std6thread5local2os12Key$LT$T$GT$3get17h9c218c76e0543e80E+0x5c>
 7003cd4:	00090513          	mv	a0,s2
 7003cd8:	00000097          	auipc	ra,0x0
 7003cdc:	4d4080e7          	jalr	1236(ra) # 70041ac <_ZN3std10sys_common16thread_local_key9StaticKey9lazy_init17hb9899df5e85445d9E>
 7003ce0:	00052503          	lw	a0,0(a0)
 7003ce4:	00100593          	li	a1,1
 7003ce8:	00a5fa63          	bgeu	a1,a0,7003cfc <_ZN3std6thread5local2os12Key$LT$T$GT$3get17h9c218c76e0543e80E+0x5c>
 7003cec:	00052583          	lw	a1,0(a0)
 7003cf0:	00058663          	beqz	a1,7003cfc <_ZN3std6thread5local2os12Key$LT$T$GT$3get17h9c218c76e0543e80E+0x5c>
 7003cf4:	00450513          	add	a0,a0,4
 7003cf8:	10c0006f          	j	7003e04 <_ZN3std6thread5local2os12Key$LT$T$GT$3get17h9c218c76e0543e80E+0x164>
 7003cfc:	00092503          	lw	a0,0(s2)
 7003d00:	0e050463          	beqz	a0,7003de8 <_ZN3std6thread5local2os12Key$LT$T$GT$3get17h9c218c76e0543e80E+0x148>
 7003d04:	00052403          	lw	s0,0(a0)
 7003d08:	00100513          	li	a0,1
 7003d0c:	0ea40a63          	beq	s0,a0,7003e00 <_ZN3std6thread5local2os12Key$LT$T$GT$3get17h9c218c76e0543e80E+0x160>
 7003d10:	02041e63          	bnez	s0,7003d4c <_ZN3std6thread5local2os12Key$LT$T$GT$3get17h9c218c76e0543e80E+0xac>
 7003d14:	00c00513          	li	a0,12
 7003d18:	00400593          	li	a1,4
 7003d1c:	ffffd097          	auipc	ra,0xffffd
 7003d20:	908080e7          	jalr	-1784(ra) # 7000624 <__rust_alloc>
 7003d24:	0e050c63          	beqz	a0,7003e1c <_ZN3std6thread5local2os12Key$LT$T$GT$3get17h9c218c76e0543e80E+0x17c>
 7003d28:	00050413          	mv	s0,a0
 7003d2c:	00052023          	sw	zero,0(a0)
 7003d30:	01252423          	sw	s2,8(a0)
 7003d34:	00092503          	lw	a0,0(s2)
 7003d38:	00051863          	bnez	a0,7003d48 <_ZN3std6thread5local2os12Key$LT$T$GT$3get17h9c218c76e0543e80E+0xa8>
 7003d3c:	00090513          	mv	a0,s2
 7003d40:	00000097          	auipc	ra,0x0
 7003d44:	46c080e7          	jalr	1132(ra) # 70041ac <_ZN3std10sys_common16thread_local_key9StaticKey9lazy_init17hb9899df5e85445d9E>
 7003d48:	00852023          	sw	s0,0(a0)
 7003d4c:	04048463          	beqz	s1,7003d94 <_ZN3std6thread5local2os12Key$LT$T$GT$3get17h9c218c76e0543e80E+0xf4>
 7003d50:	0004a583          	lw	a1,0(s1)
 7003d54:	0044a503          	lw	a0,4(s1)
 7003d58:	00b12423          	sw	a1,8(sp)
 7003d5c:	00a12623          	sw	a0,12(sp)
 7003d60:	0004a023          	sw	zero,0(s1)
 7003d64:	02058863          	beqz	a1,7003d94 <_ZN3std6thread5local2os12Key$LT$T$GT$3get17h9c218c76e0543e80E+0xf4>
 7003d68:	00100613          	li	a2,1
 7003d6c:	02c58663          	beq	a1,a2,7003d98 <_ZN3std6thread5local2os12Key$LT$T$GT$3get17h9c218c76e0543e80E+0xf8>
 7003d70:	02050263          	beqz	a0,7003d94 <_ZN3std6thread5local2os12Key$LT$T$GT$3get17h9c218c76e0543e80E+0xf4>
 7003d74:	00052583          	lw	a1,0(a0)
 7003d78:	fff58613          	add	a2,a1,-1
 7003d7c:	00100693          	li	a3,1
 7003d80:	00c52023          	sw	a2,0(a0)
 7003d84:	00d59863          	bne	a1,a3,7003d94 <_ZN3std6thread5local2os12Key$LT$T$GT$3get17h9c218c76e0543e80E+0xf4>
 7003d88:	00c10513          	add	a0,sp,12
 7003d8c:	00000097          	auipc	ra,0x0
 7003d90:	87c080e7          	jalr	-1924(ra) # 7003608 <_ZN5alloc4sync12Arc$LT$T$GT$9drop_slow17h9740c3a8f539a67cE>
 7003d94:	00000513          	li	a0,0
 7003d98:	00042683          	lw	a3,0(s0)
 7003d9c:	00442583          	lw	a1,4(s0)
 7003da0:	00100613          	li	a2,1
 7003da4:	00c42023          	sw	a2,0(s0)
 7003da8:	00a42223          	sw	a0,4(s0)
 7003dac:	00d12423          	sw	a3,8(sp)
 7003db0:	0016b513          	seqz	a0,a3
 7003db4:	0015b693          	seqz	a3,a1
 7003db8:	00d56533          	or	a0,a0,a3
 7003dbc:	00b12623          	sw	a1,12(sp)
 7003dc0:	02051063          	bnez	a0,7003de0 <_ZN3std6thread5local2os12Key$LT$T$GT$3get17h9c218c76e0543e80E+0x140>
 7003dc4:	0005a503          	lw	a0,0(a1)
 7003dc8:	fff50693          	add	a3,a0,-1
 7003dcc:	00d5a023          	sw	a3,0(a1)
 7003dd0:	00c51863          	bne	a0,a2,7003de0 <_ZN3std6thread5local2os12Key$LT$T$GT$3get17h9c218c76e0543e80E+0x140>
 7003dd4:	00c10513          	add	a0,sp,12
 7003dd8:	00000097          	auipc	ra,0x0
 7003ddc:	830080e7          	jalr	-2000(ra) # 7003608 <_ZN5alloc4sync12Arc$LT$T$GT$9drop_slow17h9740c3a8f539a67cE>
 7003de0:	00440513          	add	a0,s0,4
 7003de4:	0200006f          	j	7003e04 <_ZN3std6thread5local2os12Key$LT$T$GT$3get17h9c218c76e0543e80E+0x164>
 7003de8:	00090513          	mv	a0,s2
 7003dec:	00000097          	auipc	ra,0x0
 7003df0:	3c0080e7          	jalr	960(ra) # 70041ac <_ZN3std10sys_common16thread_local_key9StaticKey9lazy_init17hb9899df5e85445d9E>
 7003df4:	00052403          	lw	s0,0(a0)
 7003df8:	00100513          	li	a0,1
 7003dfc:	f0a41ae3          	bne	s0,a0,7003d10 <_ZN3std6thread5local2os12Key$LT$T$GT$3get17h9c218c76e0543e80E+0x70>
 7003e00:	00000513          	li	a0,0
 7003e04:	01c12083          	lw	ra,28(sp)
 7003e08:	01812403          	lw	s0,24(sp)
 7003e0c:	01412483          	lw	s1,20(sp)
 7003e10:	01012903          	lw	s2,16(sp)
 7003e14:	02010113          	add	sp,sp,32
 7003e18:	00008067          	ret
 7003e1c:	00c00513          	li	a0,12
 7003e20:	00400593          	li	a1,4
 7003e24:	00001097          	auipc	ra,0x1
 7003e28:	538080e7          	jalr	1336(ra) # 700535c <_ZN5alloc5alloc18handle_alloc_error17hf138f09b4614ca73E>
 7003e2c:	c0001073          	unimp

07003e30 <_ZN3std6thread5local2os12Key$LT$T$GT$3get17h9f1bb54295c058d4E>:
 7003e30:	ff010113          	add	sp,sp,-16
 7003e34:	00112623          	sw	ra,12(sp)
 7003e38:	00812423          	sw	s0,8(sp)
 7003e3c:	00912223          	sw	s1,4(sp)
 7003e40:	01212023          	sw	s2,0(sp)
 7003e44:	00050493          	mv	s1,a0
 7003e48:	00052503          	lw	a0,0(a0)
 7003e4c:	00058413          	mv	s0,a1
 7003e50:	00050a63          	beqz	a0,7003e64 <_ZN3std6thread5local2os12Key$LT$T$GT$3get17h9f1bb54295c058d4E+0x34>
 7003e54:	00052503          	lw	a0,0(a0)
 7003e58:	00100593          	li	a1,1
 7003e5c:	02a5e063          	bltu	a1,a0,7003e7c <_ZN3std6thread5local2os12Key$LT$T$GT$3get17h9f1bb54295c058d4E+0x4c>
 7003e60:	02c0006f          	j	7003e8c <_ZN3std6thread5local2os12Key$LT$T$GT$3get17h9f1bb54295c058d4E+0x5c>
 7003e64:	00048513          	mv	a0,s1
 7003e68:	00000097          	auipc	ra,0x0
 7003e6c:	344080e7          	jalr	836(ra) # 70041ac <_ZN3std10sys_common16thread_local_key9StaticKey9lazy_init17hb9899df5e85445d9E>
 7003e70:	00052503          	lw	a0,0(a0)
 7003e74:	00100593          	li	a1,1
 7003e78:	00a5fa63          	bgeu	a1,a0,7003e8c <_ZN3std6thread5local2os12Key$LT$T$GT$3get17h9f1bb54295c058d4E+0x5c>
 7003e7c:	00052583          	lw	a1,0(a0)
 7003e80:	00058663          	beqz	a1,7003e8c <_ZN3std6thread5local2os12Key$LT$T$GT$3get17h9f1bb54295c058d4E+0x5c>
 7003e84:	00450513          	add	a0,a0,4
 7003e88:	0a00006f          	j	7003f28 <_ZN3std6thread5local2os12Key$LT$T$GT$3get17h9f1bb54295c058d4E+0xf8>
 7003e8c:	0004a503          	lw	a0,0(s1)
 7003e90:	06050e63          	beqz	a0,7003f0c <_ZN3std6thread5local2os12Key$LT$T$GT$3get17h9f1bb54295c058d4E+0xdc>
 7003e94:	00052903          	lw	s2,0(a0)
 7003e98:	00100513          	li	a0,1
 7003e9c:	08a90463          	beq	s2,a0,7003f24 <_ZN3std6thread5local2os12Key$LT$T$GT$3get17h9f1bb54295c058d4E+0xf4>
 7003ea0:	02091e63          	bnez	s2,7003edc <_ZN3std6thread5local2os12Key$LT$T$GT$3get17h9f1bb54295c058d4E+0xac>
 7003ea4:	00c00513          	li	a0,12
 7003ea8:	00400593          	li	a1,4
 7003eac:	ffffc097          	auipc	ra,0xffffc
 7003eb0:	778080e7          	jalr	1912(ra) # 7000624 <__rust_alloc>
 7003eb4:	08050663          	beqz	a0,7003f40 <_ZN3std6thread5local2os12Key$LT$T$GT$3get17h9f1bb54295c058d4E+0x110>
 7003eb8:	00050913          	mv	s2,a0
 7003ebc:	00052023          	sw	zero,0(a0)
 7003ec0:	00952423          	sw	s1,8(a0)
 7003ec4:	0004a503          	lw	a0,0(s1)
 7003ec8:	00051863          	bnez	a0,7003ed8 <_ZN3std6thread5local2os12Key$LT$T$GT$3get17h9f1bb54295c058d4E+0xa8>
 7003ecc:	00048513          	mv	a0,s1
 7003ed0:	00000097          	auipc	ra,0x0
 7003ed4:	2dc080e7          	jalr	732(ra) # 70041ac <_ZN3std10sys_common16thread_local_key9StaticKey9lazy_init17hb9899df5e85445d9E>
 7003ed8:	01252023          	sw	s2,0(a0)
 7003edc:	00040c63          	beqz	s0,7003ef4 <_ZN3std6thread5local2os12Key$LT$T$GT$3get17h9f1bb54295c058d4E+0xc4>
 7003ee0:	00042503          	lw	a0,0(s0)
 7003ee4:	00442583          	lw	a1,4(s0)
 7003ee8:	00100613          	li	a2,1
 7003eec:	00042023          	sw	zero,0(s0)
 7003ef0:	00c50463          	beq	a0,a2,7003ef8 <_ZN3std6thread5local2os12Key$LT$T$GT$3get17h9f1bb54295c058d4E+0xc8>
 7003ef4:	00000593          	li	a1,0
 7003ef8:	00490513          	add	a0,s2,4
 7003efc:	00100613          	li	a2,1
 7003f00:	00c92023          	sw	a2,0(s2)
 7003f04:	00b92223          	sw	a1,4(s2)
 7003f08:	0200006f          	j	7003f28 <_ZN3std6thread5local2os12Key$LT$T$GT$3get17h9f1bb54295c058d4E+0xf8>
 7003f0c:	00048513          	mv	a0,s1
 7003f10:	00000097          	auipc	ra,0x0
 7003f14:	29c080e7          	jalr	668(ra) # 70041ac <_ZN3std10sys_common16thread_local_key9StaticKey9lazy_init17hb9899df5e85445d9E>
 7003f18:	00052903          	lw	s2,0(a0)
 7003f1c:	00100513          	li	a0,1
 7003f20:	f8a910e3          	bne	s2,a0,7003ea0 <_ZN3std6thread5local2os12Key$LT$T$GT$3get17h9f1bb54295c058d4E+0x70>
 7003f24:	00000513          	li	a0,0
 7003f28:	00c12083          	lw	ra,12(sp)
 7003f2c:	00812403          	lw	s0,8(sp)
 7003f30:	00412483          	lw	s1,4(sp)
 7003f34:	00012903          	lw	s2,0(sp)
 7003f38:	01010113          	add	sp,sp,16
 7003f3c:	00008067          	ret
 7003f40:	00c00513          	li	a0,12
 7003f44:	00400593          	li	a1,4
 7003f48:	00001097          	auipc	ra,0x1
 7003f4c:	414080e7          	jalr	1044(ra) # 700535c <_ZN5alloc5alloc18handle_alloc_error17hf138f09b4614ca73E>
 7003f50:	c0001073          	unimp

07003f54 <_ZN3std6thread5local2os13destroy_value17h0092f8987d190152E>:
 7003f54:	ff010113          	add	sp,sp,-16
 7003f58:	00112623          	sw	ra,12(sp)
 7003f5c:	00812423          	sw	s0,8(sp)
 7003f60:	00912223          	sw	s1,4(sp)
 7003f64:	00050493          	mv	s1,a0
 7003f68:	00852403          	lw	s0,8(a0)
 7003f6c:	00042503          	lw	a0,0(s0)
 7003f70:	00051863          	bnez	a0,7003f80 <_ZN3std6thread5local2os13destroy_value17h0092f8987d190152E+0x2c>
 7003f74:	00040513          	mv	a0,s0
 7003f78:	00000097          	auipc	ra,0x0
 7003f7c:	234080e7          	jalr	564(ra) # 70041ac <_ZN3std10sys_common16thread_local_key9StaticKey9lazy_init17hb9899df5e85445d9E>
 7003f80:	00100593          	li	a1,1
 7003f84:	00b52023          	sw	a1,0(a0)
 7003f88:	00c00593          	li	a1,12
 7003f8c:	00400613          	li	a2,4
 7003f90:	00048513          	mv	a0,s1
 7003f94:	ffffc097          	auipc	ra,0xffffc
 7003f98:	698080e7          	jalr	1688(ra) # 700062c <__rust_dealloc>
 7003f9c:	00042503          	lw	a0,0(s0)
 7003fa0:	00051863          	bnez	a0,7003fb0 <_ZN3std6thread5local2os13destroy_value17h0092f8987d190152E+0x5c>
 7003fa4:	00040513          	mv	a0,s0
 7003fa8:	00000097          	auipc	ra,0x0
 7003fac:	204080e7          	jalr	516(ra) # 70041ac <_ZN3std10sys_common16thread_local_key9StaticKey9lazy_init17hb9899df5e85445d9E>
 7003fb0:	00052023          	sw	zero,0(a0)
 7003fb4:	00c12083          	lw	ra,12(sp)
 7003fb8:	00812403          	lw	s0,8(sp)
 7003fbc:	00412483          	lw	s1,4(sp)
 7003fc0:	01010113          	add	sp,sp,16
 7003fc4:	00008067          	ret

07003fc8 <_ZN3std6thread5local2os13destroy_value17hac2a665c4e271a60E>:
 7003fc8:	ff010113          	add	sp,sp,-16
 7003fcc:	00112623          	sw	ra,12(sp)
 7003fd0:	00812423          	sw	s0,8(sp)
 7003fd4:	00912223          	sw	s1,4(sp)
 7003fd8:	00050493          	mv	s1,a0
 7003fdc:	01852403          	lw	s0,24(a0)
 7003fe0:	00042503          	lw	a0,0(s0)
 7003fe4:	00051863          	bnez	a0,7003ff4 <_ZN3std6thread5local2os13destroy_value17hac2a665c4e271a60E+0x2c>
 7003fe8:	00040513          	mv	a0,s0
 7003fec:	00000097          	auipc	ra,0x0
 7003ff0:	1c0080e7          	jalr	448(ra) # 70041ac <_ZN3std10sys_common16thread_local_key9StaticKey9lazy_init17hb9899df5e85445d9E>
 7003ff4:	00100593          	li	a1,1
 7003ff8:	00b52023          	sw	a1,0(a0)
 7003ffc:	02000593          	li	a1,32
 7004000:	00800613          	li	a2,8
 7004004:	00048513          	mv	a0,s1
 7004008:	ffffc097          	auipc	ra,0xffffc
 700400c:	624080e7          	jalr	1572(ra) # 700062c <__rust_dealloc>
 7004010:	00042503          	lw	a0,0(s0)
 7004014:	00051863          	bnez	a0,7004024 <_ZN3std6thread5local2os13destroy_value17hac2a665c4e271a60E+0x5c>
 7004018:	00040513          	mv	a0,s0
 700401c:	00000097          	auipc	ra,0x0
 7004020:	190080e7          	jalr	400(ra) # 70041ac <_ZN3std10sys_common16thread_local_key9StaticKey9lazy_init17hb9899df5e85445d9E>
 7004024:	00052023          	sw	zero,0(a0)
 7004028:	00c12083          	lw	ra,12(sp)
 700402c:	00812403          	lw	s0,8(sp)
 7004030:	00412483          	lw	s1,4(sp)
 7004034:	01010113          	add	sp,sp,16
 7004038:	00008067          	ret

0700403c <_ZN3std6thread5local2os13destroy_value17hf68ddc8f73015870E>:
 700403c:	ff010113          	add	sp,sp,-16
 7004040:	00112623          	sw	ra,12(sp)
 7004044:	00812423          	sw	s0,8(sp)
 7004048:	00912223          	sw	s1,4(sp)
 700404c:	00050493          	mv	s1,a0
 7004050:	00852403          	lw	s0,8(a0)
 7004054:	00042503          	lw	a0,0(s0)
 7004058:	00050c63          	beqz	a0,7004070 <_ZN3std6thread5local2os13destroy_value17hf68ddc8f73015870E+0x34>
 700405c:	00100593          	li	a1,1
 7004060:	00b52023          	sw	a1,0(a0)
 7004064:	0004a503          	lw	a0,0(s1)
 7004068:	02051263          	bnez	a0,700408c <_ZN3std6thread5local2os13destroy_value17hf68ddc8f73015870E+0x50>
 700406c:	0480006f          	j	70040b4 <_ZN3std6thread5local2os13destroy_value17hf68ddc8f73015870E+0x78>
 7004070:	00040513          	mv	a0,s0
 7004074:	00000097          	auipc	ra,0x0
 7004078:	138080e7          	jalr	312(ra) # 70041ac <_ZN3std10sys_common16thread_local_key9StaticKey9lazy_init17hb9899df5e85445d9E>
 700407c:	00100593          	li	a1,1
 7004080:	00b52023          	sw	a1,0(a0)
 7004084:	0004a503          	lw	a0,0(s1)
 7004088:	02050663          	beqz	a0,70040b4 <_ZN3std6thread5local2os13destroy_value17hf68ddc8f73015870E+0x78>
 700408c:	0044a503          	lw	a0,4(s1)
 7004090:	02050263          	beqz	a0,70040b4 <_ZN3std6thread5local2os13destroy_value17hf68ddc8f73015870E+0x78>
 7004094:	00052583          	lw	a1,0(a0)
 7004098:	fff58613          	add	a2,a1,-1
 700409c:	00100693          	li	a3,1
 70040a0:	00c52023          	sw	a2,0(a0)
 70040a4:	00d59863          	bne	a1,a3,70040b4 <_ZN3std6thread5local2os13destroy_value17hf68ddc8f73015870E+0x78>
 70040a8:	00448513          	add	a0,s1,4
 70040ac:	fffff097          	auipc	ra,0xfffff
 70040b0:	55c080e7          	jalr	1372(ra) # 7003608 <_ZN5alloc4sync12Arc$LT$T$GT$9drop_slow17h9740c3a8f539a67cE>
 70040b4:	00c00593          	li	a1,12
 70040b8:	00400613          	li	a2,4
 70040bc:	00048513          	mv	a0,s1
 70040c0:	ffffc097          	auipc	ra,0xffffc
 70040c4:	56c080e7          	jalr	1388(ra) # 700062c <__rust_dealloc>
 70040c8:	00042503          	lw	a0,0(s0)
 70040cc:	00051863          	bnez	a0,70040dc <_ZN3std6thread5local2os13destroy_value17hf68ddc8f73015870E+0xa0>
 70040d0:	00040513          	mv	a0,s0
 70040d4:	00000097          	auipc	ra,0x0
 70040d8:	0d8080e7          	jalr	216(ra) # 70041ac <_ZN3std10sys_common16thread_local_key9StaticKey9lazy_init17hb9899df5e85445d9E>
 70040dc:	00052023          	sw	zero,0(a0)
 70040e0:	00c12083          	lw	ra,12(sp)
 70040e4:	00812403          	lw	s0,8(sp)
 70040e8:	00412483          	lw	s1,4(sp)
 70040ec:	01010113          	add	sp,sp,16
 70040f0:	00008067          	ret

070040f4 <_ZN3std6thread5local2os13destroy_value17hf8d0ed36e5a479e1E>:
 70040f4:	ff010113          	add	sp,sp,-16
 70040f8:	00112623          	sw	ra,12(sp)
 70040fc:	00812423          	sw	s0,8(sp)
 7004100:	00912223          	sw	s1,4(sp)
 7004104:	00050493          	mv	s1,a0
 7004108:	00c52403          	lw	s0,12(a0)
 700410c:	00042503          	lw	a0,0(s0)
 7004110:	00050c63          	beqz	a0,7004128 <_ZN3std6thread5local2os13destroy_value17hf8d0ed36e5a479e1E+0x34>
 7004114:	00100593          	li	a1,1
 7004118:	00b52023          	sw	a1,0(a0)
 700411c:	0004a503          	lw	a0,0(s1)
 7004120:	02051263          	bnez	a0,7004144 <_ZN3std6thread5local2os13destroy_value17hf8d0ed36e5a479e1E+0x50>
 7004124:	0480006f          	j	700416c <_ZN3std6thread5local2os13destroy_value17hf8d0ed36e5a479e1E+0x78>
 7004128:	00040513          	mv	a0,s0
 700412c:	00000097          	auipc	ra,0x0
 7004130:	080080e7          	jalr	128(ra) # 70041ac <_ZN3std10sys_common16thread_local_key9StaticKey9lazy_init17hb9899df5e85445d9E>
 7004134:	00100593          	li	a1,1
 7004138:	00b52023          	sw	a1,0(a0)
 700413c:	0004a503          	lw	a0,0(s1)
 7004140:	02050663          	beqz	a0,700416c <_ZN3std6thread5local2os13destroy_value17hf8d0ed36e5a479e1E+0x78>
 7004144:	0084a503          	lw	a0,8(s1)
 7004148:	02050263          	beqz	a0,700416c <_ZN3std6thread5local2os13destroy_value17hf8d0ed36e5a479e1E+0x78>
 700414c:	00052583          	lw	a1,0(a0)
 7004150:	fff58613          	add	a2,a1,-1
 7004154:	00100693          	li	a3,1
 7004158:	00c52023          	sw	a2,0(a0)
 700415c:	00d59863          	bne	a1,a3,700416c <_ZN3std6thread5local2os13destroy_value17hf8d0ed36e5a479e1E+0x78>
 7004160:	00848513          	add	a0,s1,8
 7004164:	fffff097          	auipc	ra,0xfffff
 7004168:	518080e7          	jalr	1304(ra) # 700367c <_ZN5alloc4sync12Arc$LT$T$GT$9drop_slow17ha046ddaa357e950cE>
 700416c:	01000593          	li	a1,16
 7004170:	00400613          	li	a2,4
 7004174:	00048513          	mv	a0,s1
 7004178:	ffffc097          	auipc	ra,0xffffc
 700417c:	4b4080e7          	jalr	1204(ra) # 700062c <__rust_dealloc>
 7004180:	00042503          	lw	a0,0(s0)
 7004184:	00051863          	bnez	a0,7004194 <_ZN3std6thread5local2os13destroy_value17hf8d0ed36e5a479e1E+0xa0>
 7004188:	00040513          	mv	a0,s0
 700418c:	00000097          	auipc	ra,0x0
 7004190:	020080e7          	jalr	32(ra) # 70041ac <_ZN3std10sys_common16thread_local_key9StaticKey9lazy_init17hb9899df5e85445d9E>
 7004194:	00052023          	sw	zero,0(a0)
 7004198:	00c12083          	lw	ra,12(sp)
 700419c:	00812403          	lw	s0,8(sp)
 70041a0:	00412483          	lw	s1,4(sp)
 70041a4:	01010113          	add	sp,sp,16
 70041a8:	00008067          	ret

070041ac <_ZN3std10sys_common16thread_local_key9StaticKey9lazy_init17hb9899df5e85445d9E>:
 70041ac:	fb010113          	add	sp,sp,-80
 70041b0:	04112623          	sw	ra,76(sp)
 70041b4:	04812423          	sw	s0,72(sp)
 70041b8:	00050413          	mv	s0,a0
 70041bc:	00400513          	li	a0,4
 70041c0:	00400593          	li	a1,4
 70041c4:	ffffc097          	auipc	ra,0xffffc
 70041c8:	460080e7          	jalr	1120(ra) # 7000624 <__rust_alloc>
 70041cc:	00051c63          	bnez	a0,70041e4 <_ZN3std10sys_common16thread_local_key9StaticKey9lazy_init17hb9899df5e85445d9E+0x38>
 70041d0:	00400513          	li	a0,4
 70041d4:	00400593          	li	a1,4
 70041d8:	ffffc097          	auipc	ra,0xffffc
 70041dc:	44c080e7          	jalr	1100(ra) # 7000624 <__rust_alloc>
 70041e0:	02050263          	beqz	a0,7004204 <_ZN3std10sys_common16thread_local_key9StaticKey9lazy_init17hb9899df5e85445d9E+0x58>
 70041e4:	00042583          	lw	a1,0(s0)
 70041e8:	00058463          	beqz	a1,70041f0 <_ZN3std10sys_common16thread_local_key9StaticKey9lazy_init17hb9899df5e85445d9E+0x44>
 70041ec:	00058513          	mv	a0,a1
 70041f0:	00a42023          	sw	a0,0(s0)
 70041f4:	04c12083          	lw	ra,76(sp)
 70041f8:	04812403          	lw	s0,72(sp)
 70041fc:	05010113          	add	sp,sp,80
 7004200:	00008067          	ret
 7004204:	07008537          	lui	a0,0x7008
 7004208:	c9050513          	add	a0,a0,-880 # 7007c90 <anon.3a0b9931459234c4b5438a9be2c0d658.20.llvm.12044279608799662234>
 700420c:	02a12423          	sw	a0,40(sp)
 7004210:	00100513          	li	a0,1
 7004214:	02a12623          	sw	a0,44(sp)
 7004218:	02012823          	sw	zero,48(sp)
 700421c:	070085b7          	lui	a1,0x7008
 7004220:	c4c58593          	add	a1,a1,-948 # 7007c4c <anon.3a0b9931459234c4b5438a9be2c0d658.16.llvm.12044279608799662234>
 7004224:	02b12c23          	sw	a1,56(sp)
 7004228:	02012e23          	sw	zero,60(sp)
 700422c:	02810593          	add	a1,sp,40
 7004230:	02b12023          	sw	a1,32(sp)
 7004234:	070065b7          	lui	a1,0x7006
 7004238:	dcc58593          	add	a1,a1,-564 # 7005dcc <_ZN59_$LT$core..fmt..Arguments$u20$as$u20$core..fmt..Display$GT$3fmt17h267b675037d12153E>
 700423c:	02b12223          	sw	a1,36(sp)
 7004240:	070085b7          	lui	a1,0x7008
 7004244:	c6458593          	add	a1,a1,-924 # 7007c64 <anon.3a0b9931459234c4b5438a9be2c0d658.18.llvm.12044279608799662234>
 7004248:	00b12423          	sw	a1,8(sp)
 700424c:	00200593          	li	a1,2
 7004250:	00b12623          	sw	a1,12(sp)
 7004254:	00012823          	sw	zero,16(sp)
 7004258:	02010593          	add	a1,sp,32
 700425c:	00b12c23          	sw	a1,24(sp)
 7004260:	00a12e23          	sw	a0,28(sp)
 7004264:	00010513          	mv	a0,sp
 7004268:	04010593          	add	a1,sp,64
 700426c:	00810613          	add	a2,sp,8
 7004270:	00001097          	auipc	ra,0x1
 7004274:	d8c080e7          	jalr	-628(ra) # 7004ffc <_ZN3std2io5Write9write_fmt17h7e8d75eeb4951563E>
 7004278:	00010513          	mv	a0,sp
 700427c:	00000097          	auipc	ra,0x0
 7004280:	824080e7          	jalr	-2012(ra) # 7003aa0 <_ZN4core3ptr81drop_in_place$LT$core..result..Result$LT$$LP$$RP$$C$std..io..error..Error$GT$$GT$17h8c9406c494c65c98E.llvm.12044279608799662234>
 7004284:	c0001073          	unimp
 7004288:	c0001073          	unimp

0700428c <_ZN36_$LT$T$u20$as$u20$core..any..Any$GT$7type_id17h3b0cda722fa5fb03E>:
 700428c:	03348537          	lui	a0,0x3348
 7004290:	c4f50513          	add	a0,a0,-945 # 3347c4f <__heap_start+0x1347c4f>
 7004294:	f962e5b7          	lui	a1,0xf962e
 7004298:	1d658593          	add	a1,a1,470 # f962e1d6 <anon.811f17354c499ab9db5bac79de70cdc4.0.llvm.3008685313708409704+0xf2625bdf>
 700429c:	00008067          	ret

070042a0 <_ZN42_$LT$$RF$T$u20$as$u20$core..fmt..Debug$GT$3fmt17hf7145af0d62486f9E>:
 70042a0:	00052503          	lw	a0,0(a0)
 70042a4:	00002317          	auipc	t1,0x2
 70042a8:	5d430067          	jr	1492(t1) # 7006878 <_ZN43_$LT$bool$u20$as$u20$core..fmt..Display$GT$3fmt17h0aa97bc4d8af03a0E>

070042ac <_ZN44_$LT$$RF$T$u20$as$u20$core..fmt..Display$GT$3fmt17h18726c7fa529f584E>:
 70042ac:	00052603          	lw	a2,0(a0)
 70042b0:	00452683          	lw	a3,4(a0)
 70042b4:	00058713          	mv	a4,a1
 70042b8:	00060513          	mv	a0,a2
 70042bc:	00068593          	mv	a1,a3
 70042c0:	00070613          	mv	a2,a4
 70042c4:	00002317          	auipc	t1,0x2
 70042c8:	5e830067          	jr	1512(t1) # 70068ac <_ZN42_$LT$str$u20$as$u20$core..fmt..Display$GT$3fmt17h19d5394f92baad01E>

070042cc <_ZN4core3ptr122drop_in_place$LT$$RF$alloc..boxed..Box$LT$dyn$u20$core..error..Error$u2b$core..marker..Send$u2b$core..marker..Sync$GT$$GT$17h779fc6766cb068a7E.llvm.13949807993874650229>:
 70042cc:	00008067          	ret

070042d0 <_ZN50_$LT$$RF$mut$u20$W$u20$as$u20$core..fmt..Write$GT$10write_char17hff3652fa3692d0feE.llvm.13949807993874650229>:
 70042d0:	fe010113          	add	sp,sp,-32
 70042d4:	00112e23          	sw	ra,28(sp)
 70042d8:	00812c23          	sw	s0,24(sp)
 70042dc:	00912a23          	sw	s1,20(sp)
 70042e0:	01212823          	sw	s2,16(sp)
 70042e4:	00052403          	lw	s0,0(a0)
 70042e8:	08000513          	li	a0,128
 70042ec:	00058493          	mv	s1,a1
 70042f0:	02a5fc63          	bgeu	a1,a0,7004328 <_ZN50_$LT$$RF$mut$u20$W$u20$as$u20$core..fmt..Write$GT$10write_char17hff3652fa3692d0feE.llvm.13949807993874650229+0x58>
 70042f4:	00842583          	lw	a1,8(s0)
 70042f8:	00442503          	lw	a0,4(s0)
 70042fc:	00a59a63          	bne	a1,a0,7004310 <_ZN50_$LT$$RF$mut$u20$W$u20$as$u20$core..fmt..Write$GT$10write_char17hff3652fa3692d0feE.llvm.13949807993874650229+0x40>
 7004300:	00040513          	mv	a0,s0
 7004304:	fffff097          	auipc	ra,0xfffff
 7004308:	988080e7          	jalr	-1656(ra) # 7002c8c <_ZN5alloc7raw_vec19RawVec$LT$T$C$A$GT$16reserve_for_push17hbf2177df1888a4f8E>
 700430c:	00842583          	lw	a1,8(s0)
 7004310:	00042503          	lw	a0,0(s0)
 7004314:	00b50533          	add	a0,a0,a1
 7004318:	00950023          	sb	s1,0(a0)
 700431c:	00842503          	lw	a0,8(s0)
 7004320:	00150513          	add	a0,a0,1
 7004324:	0d40006f          	j	70043f8 <_ZN50_$LT$$RF$mut$u20$W$u20$as$u20$core..fmt..Write$GT$10write_char17hff3652fa3692d0feE.llvm.13949807993874650229+0x128>
 7004328:	00b4d513          	srl	a0,s1,0xb
 700432c:	00012623          	sw	zero,12(sp)
 7004330:	02051263          	bnez	a0,7004354 <_ZN50_$LT$$RF$mut$u20$W$u20$as$u20$core..fmt..Write$GT$10write_char17hff3652fa3692d0feE.llvm.13949807993874650229+0x84>
 7004334:	0064d513          	srl	a0,s1,0x6
 7004338:	0c056513          	or	a0,a0,192
